00008000  E8FB3F0000        call 0xc000
00008005  EBFE              jmp short 0x8005
00008007  6653              push bx
00008009  66BF0005          mov di,0x500
0000800D  6631DB            xor bx,bx
00008010  BA50414D53        mov edx,0x534d4150
00008015  B820E80000        mov eax,0xe820
0000801A  CD15              int 0x15
0000801C  665B              pop bx
0000801E  C3                ret
0000801F  90                nop
00008020  55                push rbp
00008021  4889E5            mov rbp,rsp
00008024  4156              push r14
00008026  41BE08000000      mov r14d,0x8
0000802C  4155              push r13
0000802E  41BDEC000000      mov r13d,0xec
00008034  4154              push r12
00008036  4989FC            mov r12,rdi
00008039  53                push rbx
0000803A  0FB77708          movzx esi,word [rdi+0x8]
0000803E  EB19              jmp short 0x8059
00008040  4181FDEC000000    cmp r13d,0xec
00008047  0F85D8000000      jnz near 0x8125
0000804D  410FB7742408      movzx esi,word [r12+0x8]
00008053  41BDA1000000      mov r13d,0xa1
00008059  8D5607            lea edx,[rsi+0x7]
0000805C  4489F0            mov eax,r14d
0000805F  EE                out dx,al
00008060  410FB644240C      movzx eax,byte [r12+0xc]
00008066  8D5606            lea edx,[rsi+0x6]
00008069  EE                out dx,al
0000806A  BF0A000000        mov edi,0xa
0000806F  E82C340000        call 0xb4a0
00008074  410FB74C2408      movzx ecx,word [r12+0x8]
0000807A  31C0              xor eax,eax
0000807C  8D5102            lea edx,[rcx+0x2]
0000807F  EE                out dx,al
00008080  8D5103            lea edx,[rcx+0x3]
00008083  EE                out dx,al
00008084  8D5104            lea edx,[rcx+0x4]
00008087  EE                out dx,al
00008088  8D5105            lea edx,[rcx+0x5]
0000808B  EE                out dx,al
0000808C  8D5107            lea edx,[rcx+0x7]
0000808F  4489E8            mov eax,r13d
00008092  EE                out dx,al
00008093  EC                in al,dx
00008094  BF0A000000        mov edi,0xa
00008099  89C3              mov ebx,eax
0000809B  E800340000        call 0xb4a0
000080A0  84DB              test bl,bl
000080A2  749C              jz 0x8040
000080A4  7929              jns 0x80cf
000080A6  662E0F1F84000000  nop word [cs:rax+rax+0x0]
         -0000
000080B0  F6C309            test bl,0x9
000080B3  751A              jnz 0x80cf
000080B5  BF0A000000        mov edi,0xa
000080BA  E8E1330000        call 0xb4a0
000080BF  410FB7742408      movzx esi,word [r12+0x8]
000080C5  8D5607            lea edx,[rsi+0x7]
000080C8  EC                in al,dx
000080C9  89C3              mov ebx,eax
000080CB  84C0              test al,al
000080CD  78E1              js 0x80b0
000080CF  83E301            and ebx,byte +0x1
000080D2  0F8568FFFFFF      jnz near 0x8040
000080D8  410FB7742408      movzx esi,word [r12+0x8]
000080DE  BF00700000        mov edi,0x7000
000080E3  B900010000        mov ecx,0x100
000080E8  89F2              mov edx,esi
000080EA  FC                cld
000080EB  F3666D            rep insw
000080EE  4181FDEC000000    cmp r13d,0xec
000080F5  753F              jnz 0x8136
000080F7  8B042578700000    mov eax,[0x7078]
000080FE  4189442410        mov [r12+0x10],eax
00008103  85C0              test eax,eax
00008105  0F8448FFFFFF      jz near 0x8053
0000810B  488B05EE5E0000    mov rax,[rel 0xe000]
00008112  41C644241400      mov byte [r12+0x14],0x0
00008118  49890424          mov [r12],rax
0000811C  5B                pop rbx
0000811D  415C              pop r12
0000811F  415D              pop r13
00008121  415E              pop r14
00008123  5D                pop rbp
00008124  C3                ret
00008125  41C7042400000000  mov dword [r12],0x0
0000812D  5B                pop rbx
0000812E  415C              pop r12
00008130  415D              pop r13
00008132  415E              pop r14
00008134  5D                pop rbp
00008135  C3                ret
00008136  0FB7042500700000  movzx eax,word [0x7000]
0000813E  A880              test al,0x80
00008140  7406              jz 0x8148
00008142  41C644241401      mov byte [r12+0x14],0x1
00008148  89C2              mov edx,eax
0000814A  66C1EA0E          shr dx,byte 0xe
0000814E  6683FA02          cmp dx,byte +0x2
00008152  0F94C2            setz dl
00008155  66C1E808          shr ax,byte 0x8
00008159  0FB6D2            movzx edx,dl
0000815C  83E01F            and eax,byte +0x1f
0000815F  83C201            add edx,byte +0x1
00008162  4189542404        mov [r12+0x4],edx
00008167  6683F805          cmp ax,byte +0x5
0000816B  741C              jz 0x8189
0000816D  6683F807          cmp ax,byte +0x7
00008171  7420              jz 0x8193
00008173  6683F801          cmp ax,byte +0x1
00008177  19C0              sbb eax,eax
00008179  83E003            and eax,byte +0x3
0000817C  41890424          mov [r12],eax
00008180  5B                pop rbx
00008181  415C              pop r12
00008183  415D              pop r13
00008185  415E              pop r14
00008187  5D                pop rbp
00008188  C3                ret
00008189  41C7042401000000  mov dword [r12],0x1
00008191  EB9A              jmp short 0x812d
00008193  41C7042402000000  mov dword [r12],0x2
0000819B  EB90              jmp short 0x812d
0000819D  0F1F00            nop dword [rax]
000081A0  55                push rbp
000081A1  4189D3            mov r11d,edx
000081A4  4189D1            mov r9d,edx
000081A7  4189D2            mov r10d,edx
000081AA  41C1EB08          shr r11d,byte 0x8
000081AE  41C1EA10          shr r10d,byte 0x10
000081B2  4189F0            mov r8d,esi
000081B5  41C1E918          shr r9d,byte 0x18
000081B9  4889E5            mov rbp,rsp
000081BC  4154              push r12
000081BE  4989FC            mov r12,rdi
000081C1  4489C7            mov edi,r8d
000081C4  53                push rbx
000081C5  450FB6C0          movzx r8d,r8b
000081C9  C1EF08            shr edi,byte 0x8
000081CC  4889CB            mov rbx,rcx
000081CF  400FB6FF          movzx edi,dil
000081D3  89F1              mov ecx,esi
000081D5  C1EE10            shr esi,byte 0x10
000081D8  400FB6F6          movzx esi,sil
000081DC  C1E918            shr ecx,byte 0x18
000081DF  4883EC10          sub rsp,byte +0x10
000081E3  0FB7051E5E0000    movzx eax,word [rel 0xe008]
000081EA  0FB6C9            movzx ecx,cl
000081ED  66C745EA0000      mov word [rbp-0x16],0x0
000081F3  668945E0          mov [rbp-0x20],ax
000081F7  0FB6C2            movzx eax,dl
000081FA  410FB6D3          movzx edx,r11b
000081FE  48C1E008          shl rax,byte 0x8
00008202  4809D0            or rax,rdx
00008205  410FB6D2          movzx edx,r10b
00008209  48C1E008          shl rax,byte 0x8
0000820D  4809D0            or rax,rdx
00008210  410FB6D1          movzx edx,r9b
00008214  48C1E008          shl rax,byte 0x8
00008218  4809D0            or rax,rdx
0000821B  48C1E008          shl rax,byte 0x8
0000821F  4C09C0            or rax,r8
00008222  48C1E008          shl rax,byte 0x8
00008226  4809F8            or rax,rdi
00008229  48C1E008          shl rax,byte 0x8
0000822D  4809F0            or rax,rsi
00008230  410FB7742408      movzx esi,word [r12+0x8]
00008236  48C1E008          shl rax,byte 0x8
0000823A  4809C8            or rax,rcx
0000823D  8D5606            lea edx,[rsi+0x6]
00008240  488945E2          mov [rbp-0x1e],rax
00008244  410FB644240C      movzx eax,byte [r12+0xc]
0000824A  EE                out dx,al
0000824B  BF0A000000        mov edi,0xa
00008250  E84B320000        call 0xb4a0
00008255  450FB74C2408      movzx r9d,word [r12+0x8]
0000825B  31C0              xor eax,eax
0000825D  418D5101          lea edx,[r9+0x1]
00008261  EE                out dx,al
00008262  418D7904          lea edi,[r9+0x4]
00008266  89FA              mov edx,edi
00008268  EE                out dx,al
00008269  458D5105          lea r10d,[r9+0x5]
0000826D  B808000000        mov eax,0x8
00008272  4489D2            mov edx,r10d
00008275  EE                out dx,al
00008276  458D4107          lea r8d,[r9+0x7]
0000827A  B8A0FFFFFF        mov eax,0xffffffa0
0000827F  4489C2            mov edx,r8d
00008282  EE                out dx,al
00008283  B906000000        mov ecx,0x6
00008288  488D75E0          lea rsi,[rbp-0x20]
0000828C  4489CA            mov edx,r9d
0000828F  FC                cld
00008290  F3666F            rep outsw
00008293  0F1F440000        nop dword [rax+rax+0x0]
00008298  4489C2            mov edx,r8d
0000829B  EC                in al,dx
0000829C  84C0              test al,al
0000829E  7904              jns 0x82a4
000082A0  A828              test al,0x28
000082A2  74F4              jz 0x8298
000082A4  4489D2            mov edx,r10d
000082A7  EC                in al,dx
000082A8  0FB6C8            movzx ecx,al
000082AB  89FA              mov edx,edi
000082AD  EC                in al,dx
000082AE  C1E108            shl ecx,byte 0x8
000082B1  0FB6C0            movzx eax,al
000082B4  4889DF            mov rdi,rbx
000082B7  4489CA            mov edx,r9d
000082BA  09C1              or ecx,eax
000082BC  D1F9              sar ecx,1
000082BE  4863C9            movsxd rcx,ecx
000082C1  FC                cld
000082C2  F3666D            rep insw
000082C5  0F1F00            nop dword [rax]
000082C8  4489C2            mov edx,r8d
000082CB  EC                in al,dx
000082CC  A888              test al,0x88
000082CE  75F8              jnz 0x82c8
000082D0  4883C410          add rsp,byte +0x10
000082D4  5B                pop rbx
000082D5  415C              pop r12
000082D7  5D                pop rbp
000082D8  C3                ret
000082D9  0F1F8000000000    nop dword [rax+0x0]
000082E0  57                push rdi
000082E1  56                push rsi
000082E2  BF00000000        mov edi,0x0
000082E7  BE00000000        mov esi,0x0
000082EC  E8EF0E0000        call 0x91e0
000082F1  5E                pop rsi
000082F2  5F                pop rdi
000082F3  48CF              iretq
000082F5  57                push rdi
000082F6  56                push rsi
000082F7  BF01000000        mov edi,0x1
000082FC  BE00000000        mov esi,0x0
00008301  E8DA0E0000        call 0x91e0
00008306  5E                pop rsi
00008307  5F                pop rdi
00008308  48CF              iretq
0000830A  57                push rdi
0000830B  56                push rsi
0000830C  BF02000000        mov edi,0x2
00008311  BE00000000        mov esi,0x0
00008316  E8C50E0000        call 0x91e0
0000831B  5E                pop rsi
0000831C  5F                pop rdi
0000831D  48CF              iretq
0000831F  57                push rdi
00008320  56                push rsi
00008321  BF03000000        mov edi,0x3
00008326  BE00000000        mov esi,0x0
0000832B  E8B00E0000        call 0x91e0
00008330  5E                pop rsi
00008331  5F                pop rdi
00008332  48CF              iretq
00008334  57                push rdi
00008335  56                push rsi
00008336  BF04000000        mov edi,0x4
0000833B  BE00000000        mov esi,0x0
00008340  E89B0E0000        call 0x91e0
00008345  5E                pop rsi
00008346  5F                pop rdi
00008347  48CF              iretq
00008349  57                push rdi
0000834A  56                push rsi
0000834B  BF05000000        mov edi,0x5
00008350  BE00000000        mov esi,0x0
00008355  E8860E0000        call 0x91e0
0000835A  5E                pop rsi
0000835B  5F                pop rdi
0000835C  48CF              iretq
0000835E  57                push rdi
0000835F  56                push rsi
00008360  BF06000000        mov edi,0x6
00008365  BE00000000        mov esi,0x0
0000836A  E8710E0000        call 0x91e0
0000836F  5E                pop rsi
00008370  5F                pop rdi
00008371  48CF              iretq
00008373  57                push rdi
00008374  56                push rsi
00008375  BF07000000        mov edi,0x7
0000837A  BE00000000        mov esi,0x0
0000837F  E85C0E0000        call 0x91e0
00008384  5E                pop rsi
00008385  5F                pop rdi
00008386  48CF              iretq
00008388  57                push rdi
00008389  56                push rsi
0000838A  BF08000000        mov edi,0x8
0000838F  67488B7424E8      mov rsi,[esp-0x18]
00008395  E8460E0000        call 0x91e0
0000839A  5E                pop rsi
0000839B  5F                pop rdi
0000839C  48CF              iretq
0000839E  57                push rdi
0000839F  56                push rsi
000083A0  BF09000000        mov edi,0x9
000083A5  BE00000000        mov esi,0x0
000083AA  E8310E0000        call 0x91e0
000083AF  5E                pop rsi
000083B0  5F                pop rdi
000083B1  48CF              iretq
000083B3  57                push rdi
000083B4  56                push rsi
000083B5  BF0A000000        mov edi,0xa
000083BA  67488B7424E8      mov rsi,[esp-0x18]
000083C0  E81B0E0000        call 0x91e0
000083C5  5E                pop rsi
000083C6  5F                pop rdi
000083C7  48CF              iretq
000083C9  57                push rdi
000083CA  56                push rsi
000083CB  BF0B000000        mov edi,0xb
000083D0  67488B7424E8      mov rsi,[esp-0x18]
000083D6  E8050E0000        call 0x91e0
000083DB  5E                pop rsi
000083DC  5F                pop rdi
000083DD  48CF              iretq
000083DF  57                push rdi
000083E0  56                push rsi
000083E1  BF0C000000        mov edi,0xc
000083E6  67488B7424E8      mov rsi,[esp-0x18]
000083EC  E8EF0D0000        call 0x91e0
000083F1  5E                pop rsi
000083F2  5F                pop rdi
000083F3  48CF              iretq
000083F5  57                push rdi
000083F6  56                push rsi
000083F7  BF0D000000        mov edi,0xd
000083FC  67488B7424E8      mov rsi,[esp-0x18]
00008402  E8D90D0000        call 0x91e0
00008407  5E                pop rsi
00008408  5F                pop rdi
00008409  48CF              iretq
0000840B  57                push rdi
0000840C  56                push rsi
0000840D  BF0E000000        mov edi,0xe
00008412  67488B7424E8      mov rsi,[esp-0x18]
00008418  E8C30D0000        call 0x91e0
0000841D  5E                pop rsi
0000841E  5F                pop rdi
0000841F  48CF              iretq
00008421  57                push rdi
00008422  56                push rsi
00008423  BF0F000000        mov edi,0xf
00008428  BE00000000        mov esi,0x0
0000842D  E8AE0D0000        call 0x91e0
00008432  5E                pop rsi
00008433  5F                pop rdi
00008434  48CF              iretq
00008436  57                push rdi
00008437  56                push rsi
00008438  BF10000000        mov edi,0x10
0000843D  BE00000000        mov esi,0x0
00008442  E8990D0000        call 0x91e0
00008447  5E                pop rsi
00008448  5F                pop rdi
00008449  48CF              iretq
0000844B  57                push rdi
0000844C  56                push rsi
0000844D  BF11000000        mov edi,0x11
00008452  67488B7424E8      mov rsi,[esp-0x18]
00008458  E8830D0000        call 0x91e0
0000845D  5E                pop rsi
0000845E  5F                pop rdi
0000845F  48CF              iretq
00008461  57                push rdi
00008462  56                push rsi
00008463  BF12000000        mov edi,0x12
00008468  BE00000000        mov esi,0x0
0000846D  E86E0D0000        call 0x91e0
00008472  5E                pop rsi
00008473  5F                pop rdi
00008474  48CF              iretq
00008476  57                push rdi
00008477  56                push rsi
00008478  BF13000000        mov edi,0x13
0000847D  BE00000000        mov esi,0x0
00008482  E8590D0000        call 0x91e0
00008487  5E                pop rsi
00008488  5F                pop rdi
00008489  48CF              iretq
0000848B  57                push rdi
0000848C  56                push rsi
0000848D  BF14000000        mov edi,0x14
00008492  BE00000000        mov esi,0x0
00008497  E8440D0000        call 0x91e0
0000849C  5E                pop rsi
0000849D  5F                pop rdi
0000849E  48CF              iretq
000084A0  57                push rdi
000084A1  56                push rsi
000084A2  BF15000000        mov edi,0x15
000084A7  BE00000000        mov esi,0x0
000084AC  E82F0D0000        call 0x91e0
000084B1  5E                pop rsi
000084B2  5F                pop rdi
000084B3  48CF              iretq
000084B5  57                push rdi
000084B6  56                push rsi
000084B7  BF16000000        mov edi,0x16
000084BC  BE00000000        mov esi,0x0
000084C1  E81A0D0000        call 0x91e0
000084C6  5E                pop rsi
000084C7  5F                pop rdi
000084C8  48CF              iretq
000084CA  57                push rdi
000084CB  56                push rsi
000084CC  BF17000000        mov edi,0x17
000084D1  BE00000000        mov esi,0x0
000084D6  E8050D0000        call 0x91e0
000084DB  5E                pop rsi
000084DC  5F                pop rdi
000084DD  48CF              iretq
000084DF  57                push rdi
000084E0  56                push rsi
000084E1  BF18000000        mov edi,0x18
000084E6  BE00000000        mov esi,0x0
000084EB  E8F00C0000        call 0x91e0
000084F0  5E                pop rsi
000084F1  5F                pop rdi
000084F2  48CF              iretq
000084F4  57                push rdi
000084F5  56                push rsi
000084F6  BF19000000        mov edi,0x19
000084FB  BE00000000        mov esi,0x0
00008500  E8DB0C0000        call 0x91e0
00008505  5E                pop rsi
00008506  5F                pop rdi
00008507  48CF              iretq
00008509  57                push rdi
0000850A  56                push rsi
0000850B  BF1A000000        mov edi,0x1a
00008510  BE00000000        mov esi,0x0
00008515  E8C60C0000        call 0x91e0
0000851A  5E                pop rsi
0000851B  5F                pop rdi
0000851C  48CF              iretq
0000851E  57                push rdi
0000851F  56                push rsi
00008520  BF1B000000        mov edi,0x1b
00008525  BE00000000        mov esi,0x0
0000852A  E8B10C0000        call 0x91e0
0000852F  5E                pop rsi
00008530  5F                pop rdi
00008531  48CF              iretq
00008533  57                push rdi
00008534  56                push rsi
00008535  BF1C000000        mov edi,0x1c
0000853A  BE00000000        mov esi,0x0
0000853F  E89C0C0000        call 0x91e0
00008544  5E                pop rsi
00008545  5F                pop rdi
00008546  48CF              iretq
00008548  57                push rdi
00008549  56                push rsi
0000854A  BF1D000000        mov edi,0x1d
0000854F  BE00000000        mov esi,0x0
00008554  E8870C0000        call 0x91e0
00008559  5E                pop rsi
0000855A  5F                pop rdi
0000855B  48CF              iretq
0000855D  57                push rdi
0000855E  56                push rsi
0000855F  BF1E000000        mov edi,0x1e
00008564  67488B7424E8      mov rsi,[esp-0x18]
0000856A  E8710C0000        call 0x91e0
0000856F  5E                pop rsi
00008570  5F                pop rdi
00008571  48CF              iretq
00008573  57                push rdi
00008574  56                push rsi
00008575  BF1F000000        mov edi,0x1f
0000857A  BE00000000        mov esi,0x0
0000857F  E85C0C0000        call 0x91e0
00008584  5E                pop rsi
00008585  5F                pop rdi
00008586  48CF              iretq
00008588  57                push rdi
00008589  BF00000000        mov edi,0x0
0000858E  E89D0C0000        call 0x9230
00008593  5F                pop rdi
00008594  48CF              iretq
00008596  57                push rdi
00008597  BF01000000        mov edi,0x1
0000859C  E88F0C0000        call 0x9230
000085A1  5F                pop rdi
000085A2  48CF              iretq
000085A4  57                push rdi
000085A5  BF02000000        mov edi,0x2
000085AA  E8810C0000        call 0x9230
000085AF  5F                pop rdi
000085B0  48CF              iretq
000085B2  57                push rdi
000085B3  BF03000000        mov edi,0x3
000085B8  E8730C0000        call 0x9230
000085BD  5F                pop rdi
000085BE  48CF              iretq
000085C0  57                push rdi
000085C1  BF04000000        mov edi,0x4
000085C6  E8650C0000        call 0x9230
000085CB  5F                pop rdi
000085CC  48CF              iretq
000085CE  57                push rdi
000085CF  BF05000000        mov edi,0x5
000085D4  E8570C0000        call 0x9230
000085D9  5F                pop rdi
000085DA  48CF              iretq
000085DC  57                push rdi
000085DD  BF06000000        mov edi,0x6
000085E2  E8490C0000        call 0x9230
000085E7  5F                pop rdi
000085E8  48CF              iretq
000085EA  57                push rdi
000085EB  BF07000000        mov edi,0x7
000085F0  E83B0C0000        call 0x9230
000085F5  5F                pop rdi
000085F6  48CF              iretq
000085F8  57                push rdi
000085F9  BF08000000        mov edi,0x8
000085FE  E82D0C0000        call 0x9230
00008603  5F                pop rdi
00008604  48CF              iretq
00008606  57                push rdi
00008607  BF09000000        mov edi,0x9
0000860C  E81F0C0000        call 0x9230
00008611  5F                pop rdi
00008612  48CF              iretq
00008614  57                push rdi
00008615  BF0A000000        mov edi,0xa
0000861A  E8110C0000        call 0x9230
0000861F  5F                pop rdi
00008620  48CF              iretq
00008622  57                push rdi
00008623  BF0B000000        mov edi,0xb
00008628  E8030C0000        call 0x9230
0000862D  5F                pop rdi
0000862E  48CF              iretq
00008630  57                push rdi
00008631  BF0C000000        mov edi,0xc
00008636  E8F50B0000        call 0x9230
0000863B  5F                pop rdi
0000863C  48CF              iretq
0000863E  57                push rdi
0000863F  BF0D000000        mov edi,0xd
00008644  E8E70B0000        call 0x9230
00008649  5F                pop rdi
0000864A  48CF              iretq
0000864C  57                push rdi
0000864D  BF0E000000        mov edi,0xe
00008652  E8D90B0000        call 0x9230
00008657  5F                pop rdi
00008658  48CF              iretq
0000865A  57                push rdi
0000865B  BF0F000000        mov edi,0xf
00008660  E8CB0B0000        call 0x9230
00008665  5F                pop rdi
00008666  48CF              iretq
00008668  0F011F            lidt [rdi]
0000866B  FB                sti
0000866C  C3                ret
0000866D  0F1F00            nop dword [rax]
00008670  0FB715095B0000    movzx edx,word [rel 0xe180]
00008677  400FB6FF          movzx edi,dil
0000867B  B810000000        mov eax,0x10
00008680  48C1E704          shl rdi,byte 0x4
00008684  66899714070100    mov [rdi+0x10714],dx
0000868B  4889F2            mov rdx,rsi
0000868E  6689B710070100    mov [rdi+0x10710],si
00008695  48C1EA10          shr rdx,byte 0x10
00008699  48C1EE20          shr rsi,byte 0x20
0000869D  66898712070100    mov [rdi+0x10712],ax
000086A4  66899716070100    mov [rdi+0x10716],dx
000086AB  89B718070100      mov [rdi+0x10718],esi
000086B1  C7871C0701000000  mov dword [rdi+0x1071c],0x0
         -0000
000086BB  C3                ret
000086BC  0F1F4000          nop dword [rax+0x0]
000086C0  48C7053780000010  mov qword [rel 0x10702],0x10710
         -070100
000086CB  B8FF0F0000        mov eax,0xfff
000086D0  66890529800000    mov [rel 0x10700],ax
000086D7  B811000000        mov eax,0x11
000086DC  E620              out 0x20,al
000086DE  E6A0              out 0xa0,al
000086E0  B820000000        mov eax,0x20
000086E5  E621              out 0x21,al
000086E7  B828000000        mov eax,0x28
000086EC  E6A1              out 0xa1,al
000086EE  B804000000        mov eax,0x4
000086F3  E621              out 0x21,al
000086F5  B802000000        mov eax,0x2
000086FA  E6A1              out 0xa1,al
000086FC  B801000000        mov eax,0x1
00008701  E621              out 0x21,al
00008703  E6A1              out 0xa1,al
00008705  31C0              xor eax,eax
00008707  E621              out 0x21,al
00008709  E6A1              out 0xa1,al
0000870B  C705FD7F00001000  mov dword [rel 0x10712],0x8e000010
         -008E
00008715  B8E0820000        mov eax,0x82e0
0000871A  668905EF7F0000    mov [rel 0x10710],ax
00008721  4889C2            mov rdx,rax
00008724  48C1E820          shr rax,byte 0x20
00008728  48C1EA10          shr rdx,byte 0x10
0000872C  8905E67F0000      mov [rel 0x10718],eax
00008732  B8F5820000        mov eax,0x82f5
00008737  668915D87F0000    mov [rel 0x10716],dx
0000873E  4889C2            mov rdx,rax
00008741  668905D87F0000    mov [rel 0x10720],ax
00008748  48C1E820          shr rax,byte 0x20
0000874C  48C1EA10          shr rdx,byte 0x10
00008750  8905D27F0000      mov [rel 0x10728],eax
00008756  B80A830000        mov eax,0x830a
0000875B  668915C47F0000    mov [rel 0x10726],dx
00008762  4889C2            mov rdx,rax
00008765  668905C47F0000    mov [rel 0x10730],ax
0000876C  48C1E820          shr rax,byte 0x20
00008770  48C1EA10          shr rdx,byte 0x10
00008774  8905BE7F0000      mov [rel 0x10738],eax
0000877A  B81F830000        mov eax,0x831f
0000877F  668915B07F0000    mov [rel 0x10736],dx
00008786  4889C2            mov rdx,rax
00008789  668905B07F0000    mov [rel 0x10740],ax
00008790  48C1E820          shr rax,byte 0x20
00008794  48C1EA10          shr rdx,byte 0x10
00008798  8905AA7F0000      mov [rel 0x10748],eax
0000879E  B834830000        mov eax,0x8334
000087A3  6689159C7F0000    mov [rel 0x10746],dx
000087AA  4889C2            mov rdx,rax
000087AD  6689059C7F0000    mov [rel 0x10750],ax
000087B4  48C1E820          shr rax,byte 0x20
000087B8  48C1EA10          shr rdx,byte 0x10
000087BC  8905967F0000      mov [rel 0x10758],eax
000087C2  B849830000        mov eax,0x8349
000087C7  668915887F0000    mov [rel 0x10756],dx
000087CE  4889C2            mov rdx,rax
000087D1  668905887F0000    mov [rel 0x10760],ax
000087D8  48C1E820          shr rax,byte 0x20
000087DC  48C1EA10          shr rdx,byte 0x10
000087E0  8905827F0000      mov [rel 0x10768],eax
000087E6  B85E830000        mov eax,0x835e
000087EB  668915747F0000    mov [rel 0x10766],dx
000087F2  4889C2            mov rdx,rax
000087F5  48C1EA10          shr rdx,byte 0x10
000087F9  668905707F0000    mov [rel 0x10770],ax
00008800  48C1E820          shr rax,byte 0x20
00008804  C7050E7F00000000  mov dword [rel 0x1071c],0x0
         -0000
0000880E  C7050A7F00001000  mov dword [rel 0x10722],0x8e000010
         -008E
00008818  C7050A7F00000000  mov dword [rel 0x1072c],0x0
         -0000
00008822  C705067F00001000  mov dword [rel 0x10732],0x8e000010
         -008E
0000882C  C705067F00000000  mov dword [rel 0x1073c],0x0
         -0000
00008836  C705027F00001000  mov dword [rel 0x10742],0x8e000010
         -008E
00008840  C705027F00000000  mov dword [rel 0x1074c],0x0
         -0000
0000884A  C705FE7E00001000  mov dword [rel 0x10752],0x8e000010
         -008E
00008854  C705FE7E00000000  mov dword [rel 0x1075c],0x0
         -0000
0000885E  C705FA7E00001000  mov dword [rel 0x10762],0x8e000010
         -008E
00008868  C705FA7E00000000  mov dword [rel 0x1076c],0x0
         -0000
00008872  C705F67E00001000  mov dword [rel 0x10772],0x8e000010
         -008E
0000887C  668915F37E0000    mov [rel 0x10776],dx
00008883  8905EF7E0000      mov [rel 0x10778],eax
00008889  B873830000        mov eax,0x8373
0000888E  668905EB7E0000    mov [rel 0x10780],ax
00008895  4889C2            mov rdx,rax
00008898  48C1E820          shr rax,byte 0x20
0000889C  48C1EA10          shr rdx,byte 0x10
000088A0  8905E27E0000      mov [rel 0x10788],eax
000088A6  B888830000        mov eax,0x8388
000088AB  668915D47E0000    mov [rel 0x10786],dx
000088B2  4889C2            mov rdx,rax
000088B5  668905D47E0000    mov [rel 0x10790],ax
000088BC  48C1E820          shr rax,byte 0x20
000088C0  48C1EA10          shr rdx,byte 0x10
000088C4  8905CE7E0000      mov [rel 0x10798],eax
000088CA  B89E830000        mov eax,0x839e
000088CF  668915C07E0000    mov [rel 0x10796],dx
000088D6  4889C2            mov rdx,rax
000088D9  668905C07E0000    mov [rel 0x107a0],ax
000088E0  48C1E820          shr rax,byte 0x20
000088E4  48C1EA10          shr rdx,byte 0x10
000088E8  8905BA7E0000      mov [rel 0x107a8],eax
000088EE  B8B3830000        mov eax,0x83b3
000088F3  668915AC7E0000    mov [rel 0x107a6],dx
000088FA  4889C2            mov rdx,rax
000088FD  668905AC7E0000    mov [rel 0x107b0],ax
00008904  48C1E820          shr rax,byte 0x20
00008908  48C1EA10          shr rdx,byte 0x10
0000890C  8905A67E0000      mov [rel 0x107b8],eax
00008912  B8C9830000        mov eax,0x83c9
00008917  668915987E0000    mov [rel 0x107b6],dx
0000891E  4889C2            mov rdx,rax
00008921  668905987E0000    mov [rel 0x107c0],ax
00008928  48C1E820          shr rax,byte 0x20
0000892C  48C1EA10          shr rdx,byte 0x10
00008930  8905927E0000      mov [rel 0x107c8],eax
00008936  B8DF830000        mov eax,0x83df
0000893B  668915847E0000    mov [rel 0x107c6],dx
00008942  4889C2            mov rdx,rax
00008945  668905847E0000    mov [rel 0x107d0],ax
0000894C  48C1E820          shr rax,byte 0x20
00008950  48C1EA10          shr rdx,byte 0x10
00008954  89057E7E0000      mov [rel 0x107d8],eax
0000895A  B8F5830000        mov eax,0x83f5
0000895F  668915707E0000    mov [rel 0x107d6],dx
00008966  4889C2            mov rdx,rax
00008969  C705097E00000000  mov dword [rel 0x1077c],0x0
         -0000
00008973  48C1EA10          shr rdx,byte 0x10
00008977  C705017E00001000  mov dword [rel 0x10782],0x8e000010
         -008E
00008981  C705017E00000000  mov dword [rel 0x1078c],0x0
         -0000
0000898B  C705FD7D00001000  mov dword [rel 0x10792],0x8e000010
         -008E
00008995  C705FD7D00000000  mov dword [rel 0x1079c],0x0
         -0000
0000899F  C705F97D00001000  mov dword [rel 0x107a2],0x8e000010
         -008E
000089A9  C705F97D00000000  mov dword [rel 0x107ac],0x0
         -0000
000089B3  C705F57D00001000  mov dword [rel 0x107b2],0x8e000010
         -008E
000089BD  C705F57D00000000  mov dword [rel 0x107bc],0x0
         -0000
000089C7  C705F17D00001000  mov dword [rel 0x107c2],0x8e000010
         -008E
000089D1  C705F17D00000000  mov dword [rel 0x107cc],0x0
         -0000
000089DB  C705ED7D00001000  mov dword [rel 0x107d2],0x8e000010
         -008E
000089E5  C705ED7D00000000  mov dword [rel 0x107dc],0x0
         -0000
000089EF  668905EA7D0000    mov [rel 0x107e0],ax
000089F6  48C1E820          shr rax,byte 0x20
000089FA  8905E87D0000      mov [rel 0x107e8],eax
00008A00  B80B840000        mov eax,0x840b
00008A05  668915DA7D0000    mov [rel 0x107e6],dx
00008A0C  4889C2            mov rdx,rax
00008A0F  668905DA7D0000    mov [rel 0x107f0],ax
00008A16  48C1E820          shr rax,byte 0x20
00008A1A  48C1EA10          shr rdx,byte 0x10
00008A1E  8905D47D0000      mov [rel 0x107f8],eax
00008A24  B821840000        mov eax,0x8421
00008A29  668915C67D0000    mov [rel 0x107f6],dx
00008A30  4889C2            mov rdx,rax
00008A33  668905C67D0000    mov [rel 0x10800],ax
00008A3A  48C1E820          shr rax,byte 0x20
00008A3E  48C1EA10          shr rdx,byte 0x10
00008A42  8905C07D0000      mov [rel 0x10808],eax
00008A48  B836840000        mov eax,0x8436
00008A4D  668915B27D0000    mov [rel 0x10806],dx
00008A54  4889C2            mov rdx,rax
00008A57  48C1EA10          shr rdx,byte 0x10
00008A5B  668905AE7D0000    mov [rel 0x10810],ax
00008A62  48C1E820          shr rax,byte 0x20
00008A66  8905AC7D0000      mov [rel 0x10818],eax
00008A6C  B84B840000        mov eax,0x844b
00008A71  6689159E7D0000    mov [rel 0x10816],dx
00008A78  4889C2            mov rdx,rax
00008A7B  6689059E7D0000    mov [rel 0x10820],ax
00008A82  48C1E820          shr rax,byte 0x20
00008A86  48C1EA10          shr rdx,byte 0x10
00008A8A  8905987D0000      mov [rel 0x10828],eax
00008A90  B861840000        mov eax,0x8461
00008A95  6689158A7D0000    mov [rel 0x10826],dx
00008A9C  4889C2            mov rdx,rax
00008A9F  6689058A7D0000    mov [rel 0x10830],ax
00008AA6  48C1E820          shr rax,byte 0x20
00008AAA  48C1EA10          shr rdx,byte 0x10
00008AAE  8905847D0000      mov [rel 0x10838],eax
00008AB4  B876840000        mov eax,0x8476
00008AB9  668915767D0000    mov [rel 0x10836],dx
00008AC0  4889C2            mov rdx,rax
00008AC3  48C1EA10          shr rdx,byte 0x10
00008AC7  668905727D0000    mov [rel 0x10840],ax
00008ACE  48C1E820          shr rax,byte 0x20
00008AD2  6689156D7D0000    mov [rel 0x10846],dx
00008AD9  C705FF7C00001000  mov dword [rel 0x107e2],0x8e000010
         -008E
00008AE3  C705FF7C00000000  mov dword [rel 0x107ec],0x0
         -0000
00008AED  C705FB7C00001000  mov dword [rel 0x107f2],0x8e000010
         -008E
00008AF7  C705FB7C00000000  mov dword [rel 0x107fc],0x0
         -0000
00008B01  C705F77C00001000  mov dword [rel 0x10802],0x8e000010
         -008E
00008B0B  C705F77C00000000  mov dword [rel 0x1080c],0x0
         -0000
00008B15  C705F37C00001000  mov dword [rel 0x10812],0x8e000010
         -008E
00008B1F  C705F37C00000000  mov dword [rel 0x1081c],0x0
         -0000
00008B29  C705EF7C00001000  mov dword [rel 0x10822],0x8e000010
         -008E
00008B33  C705EF7C00000000  mov dword [rel 0x1082c],0x0
         -0000
00008B3D  C705EB7C00001000  mov dword [rel 0x10832],0x8e000010
         -008E
00008B47  C705EB7C00000000  mov dword [rel 0x1083c],0x0
         -0000
00008B51  C705E77C00001000  mov dword [rel 0x10842],0x8e000010
         -008E
00008B5B  8905E77C0000      mov [rel 0x10848],eax
00008B61  B88B840000        mov eax,0x848b
00008B66  4889C2            mov rdx,rax
00008B69  668905E07C0000    mov [rel 0x10850],ax
00008B70  48C1E820          shr rax,byte 0x20
00008B74  48C1EA10          shr rdx,byte 0x10
00008B78  8905DA7C0000      mov [rel 0x10858],eax
00008B7E  B8A0840000        mov eax,0x84a0
00008B83  668915CC7C0000    mov [rel 0x10856],dx
00008B8A  BA10000000        mov edx,0x10
00008B8F  668915CC7C0000    mov [rel 0x10862],dx
00008B96  0FB715E3550000    movzx edx,word [rel 0xe180]
00008B9D  668905BC7C0000    mov [rel 0x10860],ax
00008BA4  668915B97C0000    mov [rel 0x10864],dx
00008BAB  4889C2            mov rdx,rax
00008BAE  48C1E820          shr rax,byte 0x20
00008BB2  48C1EA10          shr rdx,byte 0x10
00008BB6  8905AC7C0000      mov [rel 0x10868],eax
00008BBC  B8B5840000        mov eax,0x84b5
00008BC1  6689159E7C0000    mov [rel 0x10866],dx
00008BC8  4889C2            mov rdx,rax
00008BCB  6689059E7C0000    mov [rel 0x10870],ax
00008BD2  48C1E820          shr rax,byte 0x20
00008BD6  48C1EA10          shr rdx,byte 0x10
00008BDA  8905987C0000      mov [rel 0x10878],eax
00008BE0  B8CA840000        mov eax,0x84ca
00008BE5  6689158A7C0000    mov [rel 0x10876],dx
00008BEC  4889C2            mov rdx,rax
00008BEF  6689058A7C0000    mov [rel 0x10880],ax
00008BF6  48C1E820          shr rax,byte 0x20
00008BFA  48C1EA10          shr rdx,byte 0x10
00008BFE  8905847C0000      mov [rel 0x10888],eax
00008C04  B8DF840000        mov eax,0x84df
00008C09  668915767C0000    mov [rel 0x10886],dx
00008C10  4889C2            mov rdx,rax
00008C13  668905767C0000    mov [rel 0x10890],ax
00008C1A  48C1E820          shr rax,byte 0x20
00008C1E  48C1EA10          shr rdx,byte 0x10
00008C22  8905707C0000      mov [rel 0x10898],eax
00008C28  B8F4840000        mov eax,0x84f4
00008C2D  668915627C0000    mov [rel 0x10896],dx
00008C34  4889C2            mov rdx,rax
00008C37  668905627C0000    mov [rel 0x108a0],ax
00008C3E  48C1E820          shr rax,byte 0x20
00008C42  48C1EA10          shr rdx,byte 0x10
00008C46  89055C7C0000      mov [rel 0x108a8],eax
00008C4C  B809850000        mov eax,0x8509
00008C51  6689154E7C0000    mov [rel 0x108a6],dx
00008C58  4889C2            mov rdx,rax
00008C5B  C705E77B00000000  mov dword [rel 0x1084c],0x0
         -0000
00008C65  48C1EA10          shr rdx,byte 0x10
00008C69  C705DF7B00001000  mov dword [rel 0x10852],0x8e000010
         -008E
00008C73  C705DF7B00000000  mov dword [rel 0x1085c],0x0
         -0000
00008C7D  C705E57B00000000  mov dword [rel 0x1086c],0x0
         -0000
00008C87  C705E17B00001000  mov dword [rel 0x10872],0x8e000010
         -008E
00008C91  C705E17B00000000  mov dword [rel 0x1087c],0x0
         -0000
00008C9B  C705DD7B00001000  mov dword [rel 0x10882],0x8e000010
         -008E
00008CA5  C705DD7B00000000  mov dword [rel 0x1088c],0x0
         -0000
00008CAF  C705D97B00001000  mov dword [rel 0x10892],0x8e000010
         -008E
00008CB9  C705D97B00000000  mov dword [rel 0x1089c],0x0
         -0000
00008CC3  C705D57B00001000  mov dword [rel 0x108a2],0x8e000010
         -008E
00008CCD  C705D57B00000000  mov dword [rel 0x108ac],0x0
         -0000
00008CD7  668905D27B0000    mov [rel 0x108b0],ax
00008CDE  48C1E820          shr rax,byte 0x20
00008CE2  8905D07B0000      mov [rel 0x108b8],eax
00008CE8  B81E850000        mov eax,0x851e
00008CED  668915C27B0000    mov [rel 0x108b6],dx
00008CF4  4889C2            mov rdx,rax
00008CF7  668905C27B0000    mov [rel 0x108c0],ax
00008CFE  48C1E820          shr rax,byte 0x20
00008D02  48C1EA10          shr rdx,byte 0x10
00008D06  8905BC7B0000      mov [rel 0x108c8],eax
00008D0C  B833850000        mov eax,0x8533
00008D11  668915AE7B0000    mov [rel 0x108c6],dx
00008D18  4889C2            mov rdx,rax
00008D1B  668905AE7B0000    mov [rel 0x108d0],ax
00008D22  48C1E820          shr rax,byte 0x20
00008D26  48C1EA10          shr rdx,byte 0x10
00008D2A  8905A87B0000      mov [rel 0x108d8],eax
00008D30  B848850000        mov eax,0x8548
00008D35  6689159A7B0000    mov [rel 0x108d6],dx
00008D3C  4889C2            mov rdx,rax
00008D3F  6689059A7B0000    mov [rel 0x108e0],ax
00008D46  48C1E820          shr rax,byte 0x20
00008D4A  48C1EA10          shr rdx,byte 0x10
00008D4E  8905947B0000      mov [rel 0x108e8],eax
00008D54  B85D850000        mov eax,0x855d
00008D59  668915867B0000    mov [rel 0x108e6],dx
00008D60  4889C2            mov rdx,rax
00008D63  668905867B0000    mov [rel 0x108f0],ax
00008D6A  48C1E820          shr rax,byte 0x20
00008D6E  48C1EA10          shr rdx,byte 0x10
00008D72  8905807B0000      mov [rel 0x108f8],eax
00008D78  B873850000        mov eax,0x8573
00008D7D  668915727B0000    mov [rel 0x108f6],dx
00008D84  4889C2            mov rdx,rax
00008D87  668905727B0000    mov [rel 0x10900],ax
00008D8E  48C1E820          shr rax,byte 0x20
00008D92  48C1EA10          shr rdx,byte 0x10
00008D96  89056C7B0000      mov [rel 0x10908],eax
00008D9C  B888850000        mov eax,0x8588
00008DA1  6689155E7B0000    mov [rel 0x10906],dx
00008DA8  4889C2            mov rdx,rax
00008DAB  48C1EA10          shr rdx,byte 0x10
00008DAF  6689055A7B0000    mov [rel 0x10910],ax
00008DB6  48C1E820          shr rax,byte 0x20
00008DBA  C705EE7A00001000  mov dword [rel 0x108b2],0x8e000010
         -008E
00008DC4  C705EE7A00000000  mov dword [rel 0x108bc],0x0
         -0000
00008DCE  C705EA7A00001000  mov dword [rel 0x108c2],0x8e000010
         -008E
00008DD8  C705EA7A00000000  mov dword [rel 0x108cc],0x0
         -0000
00008DE2  C705E67A00001000  mov dword [rel 0x108d2],0x8e000010
         -008E
00008DEC  C705E67A00000000  mov dword [rel 0x108dc],0x0
         -0000
00008DF6  C705E27A00001000  mov dword [rel 0x108e2],0x8e000010
         -008E
00008E00  C705E27A00000000  mov dword [rel 0x108ec],0x0
         -0000
00008E0A  C705DE7A00001000  mov dword [rel 0x108f2],0x8e000010
         -008E
00008E14  C705DE7A00000000  mov dword [rel 0x108fc],0x0
         -0000
00008E1E  C705DA7A00001000  mov dword [rel 0x10902],0x8e000010
         -008E
00008E28  C705DA7A00000000  mov dword [rel 0x1090c],0x0
         -0000
00008E32  C705D67A00001000  mov dword [rel 0x10912],0x8e000010
         -008E
00008E3C  668915D37A0000    mov [rel 0x10916],dx
00008E43  8905CF7A0000      mov [rel 0x10918],eax
00008E49  B896850000        mov eax,0x8596
00008E4E  668905CB7A0000    mov [rel 0x10920],ax
00008E55  4889C2            mov rdx,rax
00008E58  48C1E820          shr rax,byte 0x20
00008E5C  48C1EA10          shr rdx,byte 0x10
00008E60  8905C27A0000      mov [rel 0x10928],eax
00008E66  B8A4850000        mov eax,0x85a4
00008E6B  668915B47A0000    mov [rel 0x10926],dx
00008E72  4889C2            mov rdx,rax
00008E75  668905B47A0000    mov [rel 0x10930],ax
00008E7C  48C1E820          shr rax,byte 0x20
00008E80  48C1EA10          shr rdx,byte 0x10
00008E84  8905AE7A0000      mov [rel 0x10938],eax
00008E8A  B8B2850000        mov eax,0x85b2
00008E8F  668915A07A0000    mov [rel 0x10936],dx
00008E96  4889C2            mov rdx,rax
00008E99  668905A07A0000    mov [rel 0x10940],ax
00008EA0  48C1E820          shr rax,byte 0x20
00008EA4  48C1EA10          shr rdx,byte 0x10
00008EA8  89059A7A0000      mov [rel 0x10948],eax
00008EAE  B8C0850000        mov eax,0x85c0
00008EB3  6689158C7A0000    mov [rel 0x10946],dx
00008EBA  4889C2            mov rdx,rax
00008EBD  6689058C7A0000    mov [rel 0x10950],ax
00008EC4  48C1E820          shr rax,byte 0x20
00008EC8  48C1EA10          shr rdx,byte 0x10
00008ECC  8905867A0000      mov [rel 0x10958],eax
00008ED2  B8CE850000        mov eax,0x85ce
00008ED7  668915787A0000    mov [rel 0x10956],dx
00008EDE  4889C2            mov rdx,rax
00008EE1  668905787A0000    mov [rel 0x10960],ax
00008EE8  48C1E820          shr rax,byte 0x20
00008EEC  48C1EA10          shr rdx,byte 0x10
00008EF0  8905727A0000      mov [rel 0x10968],eax
00008EF6  B8DC850000        mov eax,0x85dc
00008EFB  668915647A0000    mov [rel 0x10966],dx
00008F02  4889C2            mov rdx,rax
00008F05  668905647A0000    mov [rel 0x10970],ax
00008F0C  48C1E820          shr rax,byte 0x20
00008F10  48C1EA10          shr rdx,byte 0x10
00008F14  89055E7A0000      mov [rel 0x10978],eax
00008F1A  B8EA850000        mov eax,0x85ea
00008F1F  668915507A0000    mov [rel 0x10976],dx
00008F26  4889C2            mov rdx,rax
00008F29  C705E97900000000  mov dword [rel 0x1091c],0x0
         -0000
00008F33  48C1EA10          shr rdx,byte 0x10
00008F37  C705E17900001000  mov dword [rel 0x10922],0x8e000010
         -008E
00008F41  C705E17900000000  mov dword [rel 0x1092c],0x0
         -0000
00008F4B  C705DD7900001000  mov dword [rel 0x10932],0x8e000010
         -008E
00008F55  C705DD7900000000  mov dword [rel 0x1093c],0x0
         -0000
00008F5F  C705D97900001000  mov dword [rel 0x10942],0x8e000010
         -008E
00008F69  C705D97900000000  mov dword [rel 0x1094c],0x0
         -0000
00008F73  C705D57900001000  mov dword [rel 0x10952],0x8e000010
         -008E
00008F7D  C705D57900000000  mov dword [rel 0x1095c],0x0
         -0000
00008F87  C705D17900001000  mov dword [rel 0x10962],0x8e000010
         -008E
00008F91  C705D17900000000  mov dword [rel 0x1096c],0x0
         -0000
00008F9B  C705CD7900001000  mov dword [rel 0x10972],0x8e000010
         -008E
00008FA5  C705CD7900000000  mov dword [rel 0x1097c],0x0
         -0000
00008FAF  668905CA790000    mov [rel 0x10980],ax
00008FB6  48C1E820          shr rax,byte 0x20
00008FBA  8905C8790000      mov [rel 0x10988],eax
00008FC0  B8F8850000        mov eax,0x85f8
00008FC5  668915BA790000    mov [rel 0x10986],dx
00008FCC  4889C2            mov rdx,rax
00008FCF  668905BA790000    mov [rel 0x10990],ax
00008FD6  48C1E820          shr rax,byte 0x20
00008FDA  48C1EA10          shr rdx,byte 0x10
00008FDE  8905B4790000      mov [rel 0x10998],eax
00008FE4  B806860000        mov eax,0x8606
00008FE9  668915A6790000    mov [rel 0x10996],dx
00008FF0  4889C2            mov rdx,rax
00008FF3  668905A6790000    mov [rel 0x109a0],ax
00008FFA  48C1E820          shr rax,byte 0x20
00008FFE  48C1EA10          shr rdx,byte 0x10
00009002  8905A0790000      mov [rel 0x109a8],eax
00009008  B814860000        mov eax,0x8614
0000900D  66891592790000    mov [rel 0x109a6],dx
00009014  4889C2            mov rdx,rax
00009017  66890592790000    mov [rel 0x109b0],ax
0000901E  48C1E820          shr rax,byte 0x20
00009022  48C1EA10          shr rdx,byte 0x10
00009026  89058C790000      mov [rel 0x109b8],eax
0000902C  B822860000        mov eax,0x8622
00009031  6689157E790000    mov [rel 0x109b6],dx
00009038  4889C2            mov rdx,rax
0000903B  6689057E790000    mov [rel 0x109c0],ax
00009042  48C1E820          shr rax,byte 0x20
00009046  48C1EA10          shr rdx,byte 0x10
0000904A  890578790000      mov [rel 0x109c8],eax
00009050  B830860000        mov eax,0x8630
00009055  6689156A790000    mov [rel 0x109c6],dx
0000905C  4889C2            mov rdx,rax
0000905F  6689056A790000    mov [rel 0x109d0],ax
00009066  48C1E820          shr rax,byte 0x20
0000906A  48C1EA10          shr rdx,byte 0x10
0000906E  890564790000      mov [rel 0x109d8],eax
00009074  B83E860000        mov eax,0x863e
00009079  66891556790000    mov [rel 0x109d6],dx
00009080  4889C2            mov rdx,rax
00009083  48C1EA10          shr rdx,byte 0x10
00009087  66890552790000    mov [rel 0x109e0],ax
0000908E  48C1E820          shr rax,byte 0x20
00009092  6689154D790000    mov [rel 0x109e6],dx
00009099  C705DF7800001000  mov dword [rel 0x10982],0x8e000010
         -008E
000090A3  C705DF7800000000  mov dword [rel 0x1098c],0x0
         -0000
000090AD  C705DB7800001000  mov dword [rel 0x10992],0x8e000010
         -008E
000090B7  C705DB7800000000  mov dword [rel 0x1099c],0x0
         -0000
000090C1  C705D77800001000  mov dword [rel 0x109a2],0x8e000010
         -008E
000090CB  C705D77800000000  mov dword [rel 0x109ac],0x0
         -0000
000090D5  C705D37800001000  mov dword [rel 0x109b2],0x8e000010
         -008E
000090DF  C705D37800000000  mov dword [rel 0x109bc],0x0
         -0000
000090E9  C705CF7800001000  mov dword [rel 0x109c2],0x8e000010
         -008E
000090F3  C705CF7800000000  mov dword [rel 0x109cc],0x0
         -0000
000090FD  C705CB7800001000  mov dword [rel 0x109d2],0x8e000010
         -008E
00009107  C705CB7800000000  mov dword [rel 0x109dc],0x0
         -0000
00009111  C705C77800001000  mov dword [rel 0x109e2],0x8e000010
         -008E
0000911B  8905C7780000      mov [rel 0x109e8],eax
00009121  B84C860000        mov eax,0x864c
00009126  668905C3780000    mov [rel 0x109f0],ax
0000912D  4889C2            mov rdx,rax
00009130  48C1E820          shr rax,byte 0x20
00009134  48C1EA10          shr rdx,byte 0x10
00009138  8905BA780000      mov [rel 0x109f8],eax
0000913E  B85A860000        mov eax,0x865a
00009143  668915AC780000    mov [rel 0x109f6],dx
0000914A  4889C2            mov rdx,rax
0000914D  668905AC780000    mov [rel 0x10a00],ax
00009154  48C1E820          shr rax,byte 0x20
00009158  48C1EA10          shr rdx,byte 0x10
0000915C  8905A6780000      mov [rel 0x10a08],eax
00009162  B870B40000        mov eax,0xb470
00009167  66480F6EC0        movq xmm0,rax
0000916C  B836000000        mov eax,0x36
00009171  C705717800000000  mov dword [rel 0x109ec],0x0
         -0000
0000917B  0F160506500000    movhps xmm0,qword [rel 0xe188]
00009182  C705667800001000  mov dword [rel 0x109f2],0x8e000010
         -008E
0000918C  C705667800000000  mov dword [rel 0x109fc],0x0
         -0000
00009196  C705627800001000  mov dword [rel 0x10a02],0x8e000010
         -008E
000091A0  6689155F780000    mov [rel 0x10a06],dx
000091A7  C7055B7800000000  mov dword [rel 0x10a0c],0x0
         -0000
000091B1  0F2905486E0000    movaps oword [rel 0x10000],xmm0
000091B8  E643              out 0x43,al
000091BA  B89BFFFFFF        mov eax,0xffffff9b
000091BF  E640              out 0x40,al
000091C1  B82E000000        mov eax,0x2e
000091C6  E640              out 0x40,al
000091C8  BF00070100        mov edi,0x10700
000091CD  E996F4FFFF        jmp 0x8668
000091D2  66662E0F1F840000  nop word [cs:rax+rax+0x0]
         -000000
000091DD  0F1F00            nop dword [rax]
000091E0  55                push rbp
000091E1  4863C7            movsxd rax,edi
000091E4  89F1              mov ecx,esi
000091E6  BF10E00000        mov edi,0xe010
000091EB  488B34C500D00000  mov rsi,[rax*8+0xd000]
000091F3  4889C2            mov rdx,rax
000091F6  31C0              xor eax,eax
000091F8  4889E5            mov rbp,rsp
000091FB  E8B01F0000        call 0xb1b0
00009200  F4                hlt
00009201  5D                pop rbp
00009202  C3                ret
00009203  66662E0F1F840000  nop word [cs:rax+rax+0x0]
         -000000
0000920E  6690              xchg ax,ax
00009210  83FF1F            cmp edi,byte +0x1f
00009213  7E0E              jng 0x9223
00009215  83EF20            sub edi,byte +0x20
00009218  4863FF            movsxd rdi,edi
0000921B  488934FD00000100  mov [rdi*8+0x10000],rsi
00009223  C3                ret
00009224  66662E0F1F840000  nop word [cs:rax+rax+0x0]
         -000000
0000922F  90                nop
00009230  B820000000        mov eax,0x20
00009235  83FF07            cmp edi,byte +0x7
00009238  7F16              jg 0x9250
0000923A  E620              out 0x20,al
0000923C  4863C7            movsxd rax,edi
0000923F  488B04C500000100  mov rax,[rax*8+0x10000]
00009247  4885C0            test rax,rax
0000924A  7414              jz 0x9260
0000924C  FFE0              jmp rax
0000924E  6690              xchg ax,ax
00009250  E6A0              out 0xa0,al
00009252  E620              out 0x20,al
00009254  8D47F2            lea eax,[rdi-0xe]
00009257  83F801            cmp eax,byte +0x1
0000925A  77E0              ja 0x923c
0000925C  C3                ret
0000925D  0F1F00            nop dword [rax]
00009260  89FE              mov esi,edi
00009262  BF33E00000        mov edi,0xe033
00009267  E9441F0000        jmp 0xb1b0
0000926C  0F1F4000          nop dword [rax+0x0]
00009270  E460              in al,0x60
00009272  C3                ret
00009273  66662E0F1F840000  nop word [cs:rax+rax+0x0]
         -000000
0000927E  6690              xchg ax,ax
00009280  C6058D84000001    mov byte [rel 0x11714],0x1
00009287  660F1F8400000000  nop word [rax+rax+0x0]
         -00
00009290  0FB6057D840000    movzx eax,byte [rel 0x11714]
00009297  84C0              test al,al
00009299  75F5              jnz 0x9290
0000929B  8B056F840000      mov eax,[rel 0x11710]
000092A1  C3                ret
000092A2  66662E0F1F840000  nop word [cs:rax+rax+0x0]
         -000000
000092AD  0F1F00            nop dword [rax]
000092B0  BED4030000        mov esi,0x3d4
000092B5  B80F000000        mov eax,0xf
000092BA  89F2              mov edx,esi
000092BC  EE                out dx,al
000092BD  B9D5030000        mov ecx,0x3d5
000092C2  89F8              mov eax,edi
000092C4  89CA              mov edx,ecx
000092C6  EE                out dx,al
000092C7  B80E000000        mov eax,0xe
000092CC  89F2              mov edx,esi
000092CE  EE                out dx,al
000092CF  66C1EF08          shr di,byte 0x8
000092D3  89CA              mov edx,ecx
000092D5  89F8              mov eax,edi
000092D7  EE                out dx,al
000092D8  C3                ret
000092D9  0F1F8000000000    nop dword [rax+0x0]
000092E0  BFD4030000        mov edi,0x3d4
000092E5  B80F000000        mov eax,0xf
000092EA  89FA              mov edx,edi
000092EC  EE                out dx,al
000092ED  BED5030000        mov esi,0x3d5
000092F2  89F2              mov edx,esi
000092F4  EC                in al,dx
000092F5  0FB6C8            movzx ecx,al
000092F8  89FA              mov edx,edi
000092FA  B80E000000        mov eax,0xe
000092FF  EE                out dx,al
00009300  89F2              mov edx,esi
00009302  EC                in al,dx
00009303  C1E008            shl eax,byte 0x8
00009306  09C8              or eax,ecx
00009308  C3                ret
00009309  0F1F8000000000    nop dword [rax+0x0]
00009310  66480F6EC7        movq xmm0,rdi
00009315  66480F6ECE        movq xmm1,rsi
0000931A  660FFAC8          psubd xmm1,xmm0
0000931E  660F72D101        psrld xmm1,0x1
00009323  660FFEC8          paddd xmm1,xmm0
00009327  66480F7EC8        movq rax,xmm1
0000932C  C3                ret
0000932D  0F1F00            nop dword [rax]
00009330  F30F7E4710        movq xmm0,[rdi+0x10]
00009335  F30F7E6F18        movq xmm5,[rdi+0x18]
0000933A  F30F7E5F08        movq xmm3,[rdi+0x8]
0000933F  F30F7E37          movq xmm6,[rdi]
00009343  660FD6AEA0000000  movq [rsi+0xa0],xmm5
0000934B  660F6FD0          movdqa xmm2,xmm0
0000934F  660FFAC5          psubd xmm0,xmm5
00009353  660FFAD3          psubd xmm2,xmm3
00009357  660F6FCB          movdqa xmm1,xmm3
0000935B  660FD636          movq [rsi],xmm6
0000935F  660FFACE          psubd xmm1,xmm6
00009363  660F72D001        psrld xmm0,0x1
00009368  660FFEC5          paddd xmm0,xmm5
0000936C  660F72D201        psrld xmm2,0x1
00009371  660FFED3          paddd xmm2,xmm3
00009375  660F72D101        psrld xmm1,0x1
0000937A  660FFECE          paddd xmm1,xmm6
0000937E  660FD68680000000  movq [rsi+0x80],xmm0
00009386  660F6FD8          movdqa xmm3,xmm0
0000938A  660FFADA          psubd xmm3,xmm2
0000938E  660F6FE2          movdqa xmm4,xmm2
00009392  660FFAE1          psubd xmm4,xmm1
00009396  660FD64E20        movq [rsi+0x20],xmm1
0000939B  660F72D301        psrld xmm3,0x1
000093A0  660FFED3          paddd xmm2,xmm3
000093A4  660F72D401        psrld xmm4,0x1
000093A9  660FFEE1          paddd xmm4,xmm1
000093AD  660F6FCA          movdqa xmm1,xmm2
000093B1  660FD65660        movq [rsi+0x60],xmm2
000093B6  660FFACC          psubd xmm1,xmm4
000093BA  660F72D101        psrld xmm1,0x1
000093BF  660FFECC          paddd xmm1,xmm4
000093C3  660FD64E40        movq [rsi+0x40],xmm1
000093C8  C3                ret
000093C9  0F1F8000000000    nop dword [rax+0x0]
000093D0  4889F9            mov rcx,rdi
000093D3  8B3F              mov edi,[rdi]
000093D5  8B410C            mov eax,[rcx+0xc]
000093D8  448B4904          mov r9d,[rcx+0x4]
000093DC  448B411C          mov r8d,[rcx+0x1c]
000093E0  8B7118            mov esi,[rcx+0x18]
000093E3  8D1440            lea edx,[rax+rax*2]
000093E6  438D0409          lea eax,[r9+r9]
000093EA  4429C2            sub edx,r8d
000093ED  4501C0            add r8d,r8d
000093F0  29C2              sub edx,eax
000093F2  8B4114            mov eax,[rcx+0x14]
000093F5  01D2              add edx,edx
000093F7  8D0440            lea eax,[rax+rax*2]
000093FA  4429C8            sub eax,r9d
000093FD  4429C0            sub eax,r8d
00009400  448D043F          lea r8d,[rdi+rdi]
00009404  01C0              add eax,eax
00009406  39C2              cmp edx,eax
00009408  0F43C2            cmovnc eax,edx
0000940B  8B5108            mov edx,[rcx+0x8]
0000940E  8B4910            mov ecx,[rcx+0x10]
00009411  8D1452            lea edx,[rdx+rdx*2]
00009414  8D0C49            lea ecx,[rcx+rcx*2]
00009417  29F2              sub edx,esi
00009419  29F9              sub ecx,edi
0000941B  01F6              add esi,esi
0000941D  4429C2            sub edx,r8d
00009420  29F1              sub ecx,esi
00009422  01C9              add ecx,ecx
00009424  01D2              add edx,edx
00009426  39CA              cmp edx,ecx
00009428  0F42D1            cmovc edx,ecx
0000942B  01D0              add eax,edx
0000942D  C3                ret
0000942E  6690              xchg ax,ax
00009430  55                push rbp
00009431  4989FA            mov r10,rdi
00009434  4889E5            mov rbp,rsp
00009437  53                push rbx
00009438  89F3              mov ebx,esi
0000943A  0FB7DB            movzx ebx,bx
0000943D  4883EC48          sub rsp,byte +0x48
00009441  E88AFFFFFF        call 0x93d0
00009446  83F863            cmp eax,byte +0x63
00009449  762D              jna 0x9478
0000944B  4C89D7            mov rdi,r10
0000944E  488D75B0          lea rsi,[rbp-0x50]
00009452  E8D9FEFFFF        call 0x9330
00009457  89DE              mov esi,ebx
00009459  488D7DB0          lea rdi,[rbp-0x50]
0000945D  E8CEFFFFFF        call 0x9430
00009462  89DE              mov esi,ebx
00009464  488D7DD0          lea rdi,[rbp-0x30]
00009468  E8C3FFFFFF        call 0x9430
0000946D  488B5DF8          mov rbx,[rbp-0x8]
00009471  C9                leave
00009472  C3                ret
00009473  0F1F440000        nop dword [rax+rax+0x0]
00009478  498B7218          mov rsi,[r10+0x18]
0000947C  498B3A            mov rdi,[r10]
0000947F  89DA              mov edx,ebx
00009481  488B5DF8          mov rbx,[rbp-0x8]
00009485  C9                leave
00009486  E925100000        jmp 0xa4b0
0000948B  0F1F440000        nop dword [rax+rax+0x0]
00009490  81FFFF030000      cmp edi,0x3ff
00009496  7E40              jng 0x94d8
00009498  F20F100D104D0000  movsd xmm1,qword [rel 0xe1b0]
000094A0  F20F59C1          mulsd xmm0,xmm1
000094A4  81FFFE070000      cmp edi,0x7fe
000094AA  7E1A              jng 0x94c6
000094AC  F20F59C1          mulsd xmm0,xmm1
000094B0  81EFFE070000      sub edi,0x7fe
000094B6  B8FF030000        mov eax,0x3ff
000094BB  39C7              cmp edi,eax
000094BD  0F4FF8            cmovg edi,eax
000094C0  81C7FF030000      add edi,0x3ff
000094C6  48C1E734          shl rdi,byte 0x34
000094CA  66480F6ED7        movq xmm2,rdi
000094CF  F20F59C2          mulsd xmm0,xmm2
000094D3  C3                ret
000094D4  0F1F4000          nop dword [rax+0x0]
000094D8  81FF02FCFFFF      cmp edi,0xfffffc02
000094DE  7D2D              jnl 0x950d
000094E0  F20F100DD04C0000  movsd xmm1,qword [rel 0xe1b8]
000094E8  8D87C9030000      lea eax,[rdi+0x3c9]
000094EE  F20F59C1          mulsd xmm0,xmm1
000094F2  3D02FCFFFF        cmp eax,0xfffffc02
000094F7  7D2F              jnl 0x9528
000094F9  F20F59C1          mulsd xmm0,xmm1
000094FD  81C792070000      add edi,0x792
00009503  B802FCFFFF        mov eax,0xfffffc02
00009508  39C7              cmp edi,eax
0000950A  0F4CF8            cmovl edi,eax
0000950D  81C7FF030000      add edi,0x3ff
00009513  48C1E734          shl rdi,byte 0x34
00009517  66480F6ED7        movq xmm2,rdi
0000951C  F20F59C2          mulsd xmm0,xmm2
00009520  C3                ret
00009521  0F1F8000000000    nop dword [rax+0x0]
00009528  81C7C8070000      add edi,0x7c8
0000952E  48C1E734          shl rdi,byte 0x34
00009532  66480F6ED7        movq xmm2,rdi
00009537  F20F59C2          mulsd xmm0,xmm2
0000953B  C3                ret
0000953C  0F1F4000          nop dword [rax+0x0]
00009540  66480F7EC0        movq rax,xmm0
00009545  480FBAF03F        btr rax,byte 0x3f
0000954A  66480F6EC0        movq xmm0,rax
0000954F  C3                ret
00009550  66480F7EC6        movq rsi,xmm0
00009555  4889F1            mov rcx,rsi
00009558  48C1E920          shr rcx,byte 0x20
0000955C  89CF              mov edi,ecx
0000955E  81E70000F07F      and edi,0x7ff00000
00009564  81FF0000F07F      cmp edi,0x7ff00000
0000956A  0F8428020000      jz near 0x9798
00009570  89CA              mov edx,ecx
00009572  89F0              mov eax,esi
00009574  89CF              mov edi,ecx
00009576  85C9              test ecx,ecx
00009578  0F8E02010000      jng near 0x9680
0000957E  C1FF14            sar edi,byte 0x14
00009581  0F8428020000      jz near 0x97af
00009587  55                push rbp
00009588  81E2FFFF0F00      and edx,0xfffff
0000958E  448D9F01FCFFFF    lea r11d,[rdi-0x3ff]
00009595  81CA00001000      or edx,0x100000
0000959B  83E701            and edi,byte +0x1
0000959E  4889E5            mov rbp,rsp
000095A1  4155              push r13
000095A3  4154              push r12
000095A5  53                push rbx
000095A6  750A              jnz 0x95b2
000095A8  89C1              mov ecx,eax
000095AA  01C0              add eax,eax
000095AC  C1E91F            shr ecx,byte 0x1f
000095AF  8D1451            lea edx,[rcx+rdx*2]
000095B2  89C1              mov ecx,eax
000095B4  41D1FB            sar r11d,1
000095B7  01C0              add eax,eax
000095B9  BE16000000        mov esi,0x16
000095BE  C1E91F            shr ecx,byte 0x1f
000095C1  4531D2            xor r10d,r10d
000095C4  31FF              xor edi,edi
000095C6  8D1451            lea edx,[rcx+rdx*2]
000095C9  B900002000        mov ecx,0x200000
000095CE  6690              xchg ax,ax
000095D0  448D040F          lea r8d,[rdi+rcx]
000095D4  4439C2            cmp edx,r8d
000095D7  7C0A              jl 0x95e3
000095D9  418D3C08          lea edi,[r8+rcx]
000095DD  4429C2            sub edx,r8d
000095E0  4101CA            add r10d,ecx
000095E3  4189C0            mov r8d,eax
000095E6  D1E9              shr ecx,1
000095E8  01C0              add eax,eax
000095EA  41C1E81F          shr r8d,byte 0x1f
000095EE  418D1450          lea edx,[r8+rdx*2]
000095F2  83EE01            sub esi,byte +0x1
000095F5  75D9              jnz 0x95d0
000095F7  31DB              xor ebx,ebx
000095F9  4531E4            xor r12d,r12d
000095FC  41B820000000      mov r8d,0x20
00009602  B900000080        mov ecx,0x80000000
00009607  EB42              jmp short 0x964b
00009609  0F1F8000000000    nop dword [rax+0x0]
00009610  39F0              cmp eax,esi
00009612  0F82E8000000      jc near 0x9700
00009618  39D7              cmp edi,edx
0000961A  0F85E0000000      jnz near 0x9700
00009620  448D240E          lea r12d,[rsi+rcx]
00009624  4531C9            xor r9d,r9d
00009627  85F6              test esi,esi
00009629  0F8809010000      js near 0x9738
0000962F  29F0              sub eax,esi
00009631  01CB              add ebx,ecx
00009633  89C6              mov esi,eax
00009635  D1E9              shr ecx,1
00009637  01C0              add eax,eax
00009639  C1EE1F            shr esi,byte 0x1f
0000963C  4401CE            add esi,r9d
0000963F  89F2              mov edx,esi
00009641  4183E801          sub r8d,byte +0x1
00009645  0F84FD000000      jz near 0x9748
0000964B  418D340C          lea esi,[r12+rcx]
0000964F  39D7              cmp edi,edx
00009651  7DBD              jnl 0x9610
00009653  448D240E          lea r12d,[rsi+rcx]
00009657  4189FD            mov r13d,edi
0000965A  85F6              test esi,esi
0000965C  0F88AE000000      js near 0x9710
00009662  29FA              sub edx,edi
00009664  4189D1            mov r9d,edx
00009667  39F0              cmp eax,esi
00009669  0F83BB000000      jnc near 0x972a
0000966F  448D4C12FE        lea r9d,[rdx+rdx-0x2]
00009674  4489EF            mov edi,r13d
00009677  EBB6              jmp short 0x962f
00009679  0F1F8000000000    nop dword [rax+0x0]
00009680  81E7FFFFFF7F      and edi,0x7fffffff
00009686  09F7              or edi,esi
00009688  0F8420010000      jz near 0x97ae
0000968E  85C9              test ecx,ecx
00009690  0F850F010000      jnz near 0x97a5
00009696  662E0F1F84000000  nop word [cs:rax+rax+0x0]
         -0000
000096A0  89C1              mov ecx,eax
000096A2  83EA15            sub edx,byte +0x15
000096A5  C1E015            shl eax,byte 0x15
000096A8  C1E90B            shr ecx,byte 0xb
000096AB  85C9              test ecx,ecx
000096AD  74F1              jz 0x96a0
000096AF  89D7              mov edi,edx
000096B1  F7C100001000      test ecx,0x100000
000096B7  0F8500010000      jnz near 0x97bd
000096BD  89CA              mov edx,ecx
000096BF  4189C0            mov r8d,eax
000096C2  31C9              xor ecx,ecx
000096C4  0F1F4000          nop dword [rax+0x0]
000096C8  01D2              add edx,edx
000096CA  89CE              mov esi,ecx
000096CC  8D4901            lea ecx,[rcx+0x1]
000096CF  F7C200001000      test edx,0x100000
000096D5  74F1              jz 0x96c8
000096D7  41B920000000      mov r9d,0x20
000096DD  4489C0            mov eax,r8d
000096E0  4129C9            sub r9d,ecx
000096E3  D3E0              shl eax,cl
000096E5  29F7              sub edi,esi
000096E7  4489C9            mov ecx,r9d
000096EA  4489C6            mov esi,r8d
000096ED  D3EE              shr esi,cl
000096EF  09F2              or edx,esi
000096F1  E991FEFFFF        jmp 0x9587
000096F6  662E0F1F84000000  nop word [cs:rax+rax+0x0]
         -0000
00009700  448D0C12          lea r9d,[rdx+rdx]
00009704  E92AFFFFFF        jmp 0x9633
00009709  0F1F8000000000    nop dword [rax+0x0]
00009710  4585E4            test r12d,r12d
00009713  0F8849FFFFFF      js near 0x9662
00009719  29FA              sub edx,edi
0000971B  448D6F01          lea r13d,[rdi+0x1]
0000971F  4189D1            mov r9d,edx
00009722  39F0              cmp eax,esi
00009724  0F8245FFFFFF      jc near 0x966f
0000972A  4501C9            add r9d,r9d
0000972D  4489EF            mov edi,r13d
00009730  E9FAFEFFFF        jmp 0x962f
00009735  0F1F00            nop dword [rax]
00009738  4585E4            test r12d,r12d
0000973B  79DC              jns 0x9719
0000973D  E9EDFEFFFF        jmp 0x962f
00009742  660F1F440000      nop word [rax+rax+0x0]
00009748  09C6              or esi,eax
0000974A  7408              jz 0x9754
0000974C  83FBFF            cmp ebx,byte -0x1
0000974F  7466              jz 0x97b7
00009751  83C301            add ebx,byte +0x1
00009754  D1EB              shr ebx,1
00009756  4189D8            mov r8d,ebx
00009759  4489D0            mov eax,r10d
0000975C  4489C2            mov edx,r8d
0000975F  5B                pop rbx
00009760  415C              pop r12
00009762  D1F8              sar eax,1
00009764  81CA00000080      or edx,0x80000000
0000976A  4183E201          and r10d,byte +0x1
0000976E  415D              pop r13
00009770  440F45C2          cmovnz r8d,edx
00009774  41C1E314          shl r11d,byte 0x14
00009778  5D                pop rbp
00009779  428D84180000E03F  lea eax,[rax+r11+0x3fe00000]
00009781  48C1E020          shl rax,byte 0x20
00009785  4589C0            mov r8d,r8d
00009788  4C09C0            or rax,r8
0000978B  66480F6EC0        movq xmm0,rax
00009790  C3                ret
00009791  0F1F8000000000    nop dword [rax+0x0]
00009798  660F28C8          movapd xmm1,xmm0
0000979C  F20F59C8          mulsd xmm1,xmm0
000097A0  F20F58C1          addsd xmm0,xmm1
000097A4  C3                ret
000097A5  F20F5CC0          subsd xmm0,xmm0
000097A9  F20F5EC0          divsd xmm0,xmm0
000097AD  C3                ret
000097AE  C3                ret
000097AF  4189F0            mov r8d,esi
000097B2  E90BFFFFFF        jmp 0x96c2
000097B7  4183C201          add r10d,byte +0x1
000097BB  EB9C              jmp short 0x9759
000097BD  4189C0            mov r8d,eax
000097C0  89CA              mov edx,ecx
000097C2  41B920000000      mov r9d,0x20
000097C8  BEFFFFFFFF        mov esi,0xffffffff
000097CD  E913FFFFFF        jmp 0x96e5
000097D2  66662E0F1F840000  nop word [cs:rax+rax+0x0]
         -000000
000097DD  0F1F00            nop dword [rax]
000097E0  66480F7ECF        movq rdi,xmm1
000097E5  4889FE            mov rsi,rdi
000097E8  48C1EE20          shr rsi,byte 0x20
000097EC  89F0              mov eax,esi
000097EE  25FFFFFF7F        and eax,0x7fffffff
000097F3  89C1              mov ecx,eax
000097F5  09F9              or ecx,edi
000097F7  7467              jz 0x9860
000097F9  66480F7EC2        movq rdx,xmm0
000097FE  4989D0            mov r8,rdx
00009801  49C1E820          shr r8,byte 0x20
00009805  4981F80000F03F    cmp r8,0x3ff00000
0000980C  750C              jnz 0x981a
0000980E  F20F1015AA490000  movsd xmm2,qword [rel 0xe1c0]
00009816  85D2              test edx,edx
00009818  743E              jz 0x9858
0000981A  4589C1            mov r9d,r8d
0000981D  4181E1FFFFFF7F    and r9d,0x7fffffff
00009824  4181F90000F07F    cmp r9d,0x7ff00000
0000982B  7F23              jg 0x9850
0000982D  410F94C2          setz r10b
00009831  85D2              test edx,edx
00009833  0F95C1            setnz cl
00009836  4184CA            test r10b,cl
00009839  7515              jnz 0x9850
0000983B  3D0000F07F        cmp eax,0x7ff00000
00009840  7F0E              jg 0x9850
00009842  752C              jnz 0x9870
00009844  85FF              test edi,edi
00009846  7428              jz 0x9870
00009848  0F1F840000000000  nop dword [rax+rax+0x0]
00009850  660F28D0          movapd xmm2,xmm0
00009854  F20F58D1          addsd xmm2,xmm1
00009858  660F28C2          movapd xmm0,xmm2
0000985C  C3                ret
0000985D  0F1F00            nop dword [rax]
00009860  F20F101558490000  movsd xmm2,qword [rel 0xe1c0]
00009868  660F28C2          movapd xmm0,xmm2
0000986C  C3                ret
0000986D  0F1F00            nop dword [rax]
00009870  4585C0            test r8d,r8d
00009873  0F8817040000      js near 0x9c90
00009879  85FF              test edi,edi
0000987B  0F847F040000      jz near 0x9d00
00009881  85D2              test edx,edx
00009883  751E              jnz 0x98a3
00009885  4489C2            mov edx,r8d
00009888  81E2FFFFFF3F      and edx,0x3fffffff
0000988E  81FA0000F03F      cmp edx,0x3ff00000
00009894  0F8466050000      jz near 0x9e00
0000989A  4585C9            test r9d,r9d
0000989D  0F845D050000      jz near 0x9e00
000098A3  F20F101D15490000  movsd xmm3,qword [rel 0xe1c0]
000098AB  3D0000E041        cmp eax,0x41e00000
000098B0  0F8F9A040000      jg near 0x9d50
000098B6  41F7C00000F07F    test r8d,0x7ff00000
000098BD  0F8493060000      jz near 0x9f56
000098C3  66480F7EC0        movq rax,xmm0
000098C8  31C9              xor ecx,ecx
000098CA  4489CA            mov edx,r9d
000098CD  4181E1FFFF0F00    and r9d,0xfffff
000098D4  C1FA14            sar edx,byte 0x14
000098D7  8D941101FCFFFF    lea edx,[rcx+rdx-0x3ff]
000098DE  4489C9            mov ecx,r9d
000098E1  81C90000F03F      or ecx,0x3ff00000
000098E7  4181F98E980300    cmp r9d,0x3988e
000098EE  7E16              jng 0x9906
000098F0  4181F979B60B00    cmp r9d,0xbb679
000098F7  0F8E47080000      jng near 0xa144
000098FD  83C201            add edx,byte +0x1
00009900  81E900001000      sub ecx,0x100000
00009906  F20F1025B2480000  movsd xmm4,qword [rel 0xe1c0]
0000990E  660FEFED          pxor xmm5,xmm5
00009912  4531C0            xor r8d,r8d
00009915  660F28F5          movapd xmm6,xmm5
00009919  66440F28DC        movapd xmm11,xmm4
0000991E  4889CE            mov rsi,rcx
00009921  89C0              mov eax,eax
00009923  66440F28D4        movapd xmm10,xmm4
00009928  D1F9              sar ecx,1
0000992A  48C1E620          shl rsi,byte 0x20
0000992E  81C900000020      or ecx,0x20000000
00009934  4809F0            or rax,rsi
00009937  418D8C0800000800  lea ecx,[r8+rcx+0x80000]
0000993F  66480F6ED0        movq xmm2,rax
00009944  48C1E120          shl rcx,byte 0x20
00009948  48B800000000FFFF  mov rax,0xffffffff00000000
         -FFFF
00009952  660F28C2          movapd xmm0,xmm2
00009956  66440F28C2        movapd xmm8,xmm2
0000995B  F2410F58C3        addsd xmm0,xmm11
00009960  F2450F5CC3        subsd xmm8,xmm11
00009965  F2440F5ED0        divsd xmm10,xmm0
0000996A  66410F28F8        movapd xmm7,xmm8
0000996F  66480F6EC1        movq xmm0,rcx
00009974  F2410F59FA        mulsd xmm7,xmm10
00009979  66480F7EFE        movq rsi,xmm7
0000997E  4821C6            and rsi,rax
00009981  664C0F6ECE        movq xmm9,rsi
00009986  66450F28E1        movapd xmm12,xmm9
0000998B  F2440F59E0        mulsd xmm12,xmm0
00009990  F2410F5CC3        subsd xmm0,xmm11
00009995  66450F28D9        movapd xmm11,xmm9
0000999A  F2450F59D9        mulsd xmm11,xmm9
0000999F  F20F5CD0          subsd xmm2,xmm0
000099A3  F20F100595480000  movsd xmm0,qword [rel 0xe240]
000099AB  F2450F5CC4        subsd xmm8,xmm12
000099B0  F2440F1025B74800  movsd xmm12,qword [rel 0xe270]
         -00
000099B9  F2410F59D1        mulsd xmm2,xmm9
000099BE  F2440F5CC2        subsd xmm8,xmm2
000099C3  660F28D7          movapd xmm2,xmm7
000099C7  F20F59D7          mulsd xmm2,xmm7
000099CB  F2450F59C2        mulsd xmm8,xmm10
000099D0  F20F59C2          mulsd xmm0,xmm2
000099D4  F20F58056C480000  addsd xmm0,[rel 0xe248]
000099DC  F20F59C2          mulsd xmm0,xmm2
000099E0  F20F580568480000  addsd xmm0,[rel 0xe250]
000099E8  F20F59C2          mulsd xmm0,xmm2
000099EC  F20F580564480000  addsd xmm0,[rel 0xe258]
000099F4  F20F59C2          mulsd xmm0,xmm2
000099F8  F20F580560480000  addsd xmm0,[rel 0xe260]
00009A00  F20F59C2          mulsd xmm0,xmm2
00009A04  F20F59D2          mulsd xmm2,xmm2
00009A08  F20F580558480000  addsd xmm0,[rel 0xe268]
00009A10  F20F59C2          mulsd xmm0,xmm2
00009A14  660F28D7          movapd xmm2,xmm7
00009A18  F2410F58D1        addsd xmm2,xmm9
00009A1D  F2410F59D0        mulsd xmm2,xmm8
00009A22  F20F58D0          addsd xmm2,xmm0
00009A26  66410F28C3        movapd xmm0,xmm11
00009A2B  F2410F58C4        addsd xmm0,xmm12
00009A30  F20F58C2          addsd xmm0,xmm2
00009A34  66480F7EC1        movq rcx,xmm0
00009A39  4821C1            and rcx,rax
00009A3C  66480F6EC1        movq xmm0,rcx
00009A41  F2440F59C0        mulsd xmm8,xmm0
00009A46  66440F28D0        movapd xmm10,xmm0
00009A4B  F2450F5CD4        subsd xmm10,xmm12
00009A50  F2440F59C8        mulsd xmm9,xmm0
00009A55  F2450F5CD3        subsd xmm10,xmm11
00009A5A  66410F28C1        movapd xmm0,xmm9
00009A5F  F2410F5CD2        subsd xmm2,xmm10
00009A64  F20F59D7          mulsd xmm2,xmm7
00009A68  F20F103D08480000  movsd xmm7,qword [rel 0xe278]
00009A70  F2410F58D0        addsd xmm2,xmm8
00009A75  F20F58C2          addsd xmm0,xmm2
00009A79  66480F7EC1        movq rcx,xmm0
00009A7E  4821C1            and rcx,rax
00009A81  66480F6EC1        movq xmm0,rcx
00009A86  F20F59F8          mulsd xmm7,xmm0
00009A8A  66440F28C0        movapd xmm8,xmm0
00009A8F  F2450F5CC1        subsd xmm8,xmm9
00009A94  F20F5905EC470000  mulsd xmm0,qword [rel 0xe288]
00009A9C  F2410F5CD0        subsd xmm2,xmm8
00009AA1  F20F5915D7470000  mulsd xmm2,qword [rel 0xe280]
00009AA9  66450FEFC0        pxor xmm8,xmm8
00009AAE  F2440F2AC2        cvtsi2sd xmm8,edx
00009AB3  F20F58D0          addsd xmm2,xmm0
00009AB7  660F28C7          movapd xmm0,xmm7
00009ABB  F20F58D6          addsd xmm2,xmm6
00009ABF  F20F58C2          addsd xmm0,xmm2
00009AC3  F20F58C5          addsd xmm0,xmm5
00009AC7  F2410F58C0        addsd xmm0,xmm8
00009ACC  66480F7EC2        movq rdx,xmm0
00009AD1  4821D0            and rax,rdx
00009AD4  66480F6EC0        movq xmm0,rax
00009AD9  660F28F0          movapd xmm6,xmm0
00009ADD  F2410F5CF0        subsd xmm6,xmm8
00009AE2  F20F5CF5          subsd xmm6,xmm5
00009AE6  F20F5CF7          subsd xmm6,xmm7
00009AEA  F20F5CD6          subsd xmm2,xmm6
00009AEE  48B800000000FFFF  mov rax,0xffffffff00000000
         -FFFF
00009AF8  660F28E9          movapd xmm5,xmm1
00009AFC  F20F59D1          mulsd xmm2,xmm1
00009B00  4821C7            and rdi,rax
00009B03  66480F6EF7        movq xmm6,rdi
00009B08  F20F5CEE          subsd xmm5,xmm6
00009B0C  F20F59E8          mulsd xmm5,xmm0
00009B10  F20F59C6          mulsd xmm0,xmm6
00009B14  F20F58EA          addsd xmm5,xmm2
00009B18  660F28D5          movapd xmm2,xmm5
00009B1C  660F28CD          movapd xmm1,xmm5
00009B20  F20F58D0          addsd xmm2,xmm0
00009B24  66480F7ED0        movq rax,xmm2
00009B29  4889C2            mov rdx,rax
00009B2C  48C1EA20          shr rdx,byte 0x20
00009B30  81FAFFFF8F40      cmp edx,0x408fffff
00009B36  0F8E2C030000      jng near 0x9e68
00009B3C  81EA00009040      sub edx,0x40900000
00009B42  09C2              or edx,eax
00009B44  0F8535040000      jnz near 0x9f7f
00009B4A  F20F102D3E470000  movsd xmm5,qword [rel 0xe290]
00009B52  F20F5CD0          subsd xmm2,xmm0
00009B56  F20F58E9          addsd xmm5,xmm1
00009B5A  660F2FEA          comisd xmm5,xmm2
00009B5E  0F871B040000      ja near 0x9f7f
00009B64  F20F101584460000  movsd xmm2,qword [rel 0xe1f0]
00009B6C  BF00040000        mov edi,0x400
00009B71  F20F5CC2          subsd xmm0,xmm2
00009B75  660F28F9          movapd xmm7,xmm1
00009B79  89F9              mov ecx,edi
00009B7B  C1E114            shl ecx,byte 0x14
00009B7E  F20F58F8          addsd xmm7,xmm0
00009B82  66480F7EF8        movq rax,xmm7
00009B87  48BA00000000FFFF  mov rdx,0xffffffff00000000
         -FFFF
00009B91  F20F102DFF460000  movsd xmm5,qword [rel 0xe298]
00009B99  4821D0            and rax,rdx
00009B9C  66480F6EF0        movq xmm6,rax
00009BA1  F20F59EE          mulsd xmm5,xmm6
00009BA5  660F28D6          movapd xmm2,xmm6
00009BA9  F20F5CD0          subsd xmm2,xmm0
00009BAD  F20F5935F3460000  mulsd xmm6,qword [rel 0xe2a8]
00009BB5  F20F5CCA          subsd xmm1,xmm2
00009BB9  F20F590DDF460000  mulsd xmm1,qword [rel 0xe2a0]
00009BC1  660F28D5          movapd xmm2,xmm5
00009BC5  F20F58CE          addsd xmm1,xmm6
00009BC9  F20F58D1          addsd xmm2,xmm1
00009BCD  660F28F1          movapd xmm6,xmm1
00009BD1  660F28C2          movapd xmm0,xmm2
00009BD5  660F28CA          movapd xmm1,xmm2
00009BD9  F20F5CC5          subsd xmm0,xmm5
00009BDD  660F28EA          movapd xmm5,xmm2
00009BE1  F20F59EA          mulsd xmm5,xmm2
00009BE5  F20F5CF0          subsd xmm6,xmm0
00009BE9  F20F1005BF460000  movsd xmm0,qword [rel 0xe2b0]
00009BF1  F20F59C5          mulsd xmm0,xmm5
00009BF5  F20F5C05BB460000  subsd xmm0,qword [rel 0xe2b8]
00009BFD  F20F59C5          mulsd xmm0,xmm5
00009C01  F20F5805B7460000  addsd xmm0,[rel 0xe2c0]
00009C09  F20F59C5          mulsd xmm0,xmm5
00009C0D  F20F5C05B3460000  subsd xmm0,qword [rel 0xe2c8]
00009C15  F20F59C5          mulsd xmm0,xmm5
00009C19  F20F5805AF460000  addsd xmm0,[rel 0xe2d0]
00009C21  F20F59C5          mulsd xmm0,xmm5
00009C25  660F28EA          movapd xmm5,xmm2
00009C29  F20F5CE8          subsd xmm5,xmm0
00009C2D  660F28C2          movapd xmm0,xmm2
00009C31  F20F59C6          mulsd xmm0,xmm6
00009C35  F20F59CD          mulsd xmm1,xmm5
00009C39  F20F5C2D97460000  subsd xmm5,qword [rel 0xe2d8]
00009C41  F20F58C6          addsd xmm0,xmm6
00009C45  F20F5ECD          divsd xmm1,xmm5
00009C49  F20F5CC8          subsd xmm1,xmm0
00009C4D  F20F5CCA          subsd xmm1,xmm2
00009C51  F20F5CE1          subsd xmm4,xmm1
00009C55  66480F7EE0        movq rax,xmm4
00009C5A  4889C2            mov rdx,rax
00009C5D  48C1EA20          shr rdx,byte 0x20
00009C61  01D1              add ecx,edx
00009C63  81F9FFFF0F00      cmp ecx,0xfffff
00009C69  0F8EA9040000      jng near 0xa118
00009C6F  89C0              mov eax,eax
00009C71  48C1E120          shl rcx,byte 0x20
00009C75  4809C8            or rax,rcx
00009C78  66480F6ED0        movq xmm2,rax
00009C7D  F20F59D3          mulsd xmm2,xmm3
00009C81  E9D2FBFFFF        jmp 0x9858
00009C86  662E0F1F84000000  nop word [cs:rax+rax+0x0]
         -0000
00009C90  3DFFFF3F43        cmp eax,0x433fffff
00009C95  0F8FED000000      jg near 0x9d88
00009C9B  3DFFFFEF3F        cmp eax,0x3fefffff
00009CA0  0F8E48030000      jng near 0x9fee
00009CA6  4189C2            mov r10d,eax
00009CA9  41C1FA14          sar r10d,byte 0x14
00009CAD  4181EAFF030000    sub r10d,0x3ff
00009CB4  4183FA14          cmp r10d,byte +0x14
00009CB8  0F8ECB040000      jng near 0xa189
00009CBE  B934000000        mov ecx,0x34
00009CC3  4429D1            sub ecx,r10d
00009CC6  4189FA            mov r10d,edi
00009CC9  41D3EA            shr r10d,cl
00009CCC  4589D3            mov r11d,r10d
00009CCF  41D3E3            shl r11d,cl
00009CD2  4439DF            cmp edi,r11d
00009CD5  0F8436050000      jz near 0xa211
00009CDB  85FF              test edi,edi
00009CDD  0F8566030000      jnz near 0xa049
00009CE3  85D2              test edx,edx
00009CE5  0F84B6050000      jz near 0xa2a1
00009CEB  F20F5CC0          subsd xmm0,xmm0
00009CEF  660F28D0          movapd xmm2,xmm0
00009CF3  F20F5ED0          divsd xmm2,xmm0
00009CF7  E95CFBFFFF        jmp 0x9858
00009CFC  0F1F4000          nop dword [rax+0x0]
00009D00  31C9              xor ecx,ecx
00009D02  3D0000F07F        cmp eax,0x7ff00000
00009D07  0F841B010000      jz near 0x9e28
00009D0D  3D0000F03F        cmp eax,0x3ff00000
00009D12  0F84E8000000      jz near 0x9e00
00009D18  81FE00000040      cmp esi,0x40000000
00009D1E  0F84CA040000      jz near 0xa1ee
00009D24  81FE0000E03F      cmp esi,0x3fe00000
00009D2A  0F8593040000      jnz near 0xa1c3
00009D30  4585C0            test r8d,r8d
00009D33  0F88D3020000      js near 0xa00c
00009D39  E912F8FFFF        jmp 0x9550
00009D3E  F20F101D7A440000  movsd xmm3,qword [rel 0xe1c0]
00009D46  660F28C2          movapd xmm0,xmm2
00009D4A  660F1F440000      nop word [rax+rax+0x0]
00009D50  3D0000F043        cmp eax,0x43f00000
00009D55  0F8E51010000      jng near 0x9eac
00009D5B  4181F9FFFFEF3F    cmp r9d,0x3fefffff
00009D62  0F8FCB030000      jg near 0xa133
00009D68  660FEFD2          pxor xmm2,xmm2
00009D6C  85F6              test esi,esi
00009D6E  0F89E4FAFFFF      jns near 0x9858
00009D74  F20F10157C440000  movsd xmm2,qword [rel 0xe1f8]
00009D7C  F20F59D2          mulsd xmm2,xmm2
00009D80  E9D3FAFFFF        jmp 0x9858
00009D85  0F1F00            nop dword [rax]
00009D88  85FF              test edi,edi
00009D8A  0F8508020000      jnz near 0x9f98
00009D90  3D0000F07F        cmp eax,0x7ff00000
00009D95  0F848D000000      jz near 0x9e28
00009D9B  4889D1            mov rcx,rdx
00009D9E  480FBAF13F        btr rcx,byte 0x3f
00009DA3  66480F6ED1        movq xmm2,rcx
00009DA8  B902000000        mov ecx,0x2
00009DAD  85D2              test edx,edx
00009DAF  758D              jnz 0x9d3e
00009DB1  4489C2            mov edx,r8d
00009DB4  81E2FFFFFF3F      and edx,0x3fffffff
00009DBA  81FA0000F03F      cmp edx,0x3ff00000
00009DC0  7409              jz 0x9dcb
00009DC2  4585C9            test r9d,r9d
00009DC5  0F85E7040000      jnz near 0xa2b2
00009DCB  85F6              test esi,esi
00009DCD  7910              jns 0x9ddf
00009DCF  F20F1005E9430000  movsd xmm0,qword [rel 0xe1c0]
00009DD7  F20F5EC2          divsd xmm0,xmm2
00009DDB  660F28D0          movapd xmm2,xmm0
00009DDF  4181E90000F03F    sub r9d,0x3ff00000
00009DE6  4109C9            or r9d,ecx
00009DE9  0F850C040000      jnz near 0xa1fb
00009DEF  F20F5CD2          subsd xmm2,xmm2
00009DF3  F20F5ED2          divsd xmm2,xmm2
00009DF7  E95CFAFFFF        jmp 0x9858
00009DFC  0F1F4000          nop dword [rax+0x0]
00009E00  660F28D0          movapd xmm2,xmm0
00009E04  85F6              test esi,esi
00009E06  0F894CFAFFFF      jns near 0x9858
00009E0C  F20F1005AC430000  movsd xmm0,qword [rel 0xe1c0]
00009E14  F20F5EC2          divsd xmm0,xmm2
00009E18  660F28D0          movapd xmm2,xmm0
00009E1C  E937FAFFFF        jmp 0x9858
00009E21  0F1F8000000000    nop dword [rax+0x0]
00009E28  418D81000010C0    lea eax,[r9-0x3ff00000]
00009E2F  F20F101589430000  movsd xmm2,qword [rel 0xe1c0]
00009E37  09D0              or eax,edx
00009E39  0F8419FAFFFF      jz near 0x9858
00009E3F  660FEFD2          pxor xmm2,xmm2
00009E43  4181F9FFFFEF3F    cmp r9d,0x3fefffff
00009E4A  0F8E20030000      jng near 0xa170
00009E50  85F6              test esi,esi
00009E52  0F8800FAFFFF      js near 0x9858
00009E58  660F28D1          movapd xmm2,xmm1
00009E5C  E9F7F9FFFF        jmp 0x9858
00009E61  0F1F8000000000    nop dword [rax+0x0]
00009E68  89D6              mov esi,edx
00009E6A  81E6FFFFFF7F      and esi,0x7fffffff
00009E70  81FEFFCB9040      cmp esi,0x4090cbff
00009E76  0F8E20020000      jng near 0xa09c
00009E7C  81C200346F3F      add edx,0x3f6f3400
00009E82  09C2              or edx,eax
00009E84  0F85F9010000      jnz near 0xa083
00009E8A  F20F5CD0          subsd xmm2,xmm0
00009E8E  660F2FD5          comisd xmm2,xmm5
00009E92  0F83EB010000      jnc near 0xa083
00009E98  BF33040000        mov edi,0x433
00009E9D  F20F101543430000  movsd xmm2,qword [rel 0xe1e8]
00009EA5  F7DF              neg edi
00009EA7  E9C5FCFFFF        jmp 0x9b71
00009EAC  4181F9FEFFEF3F    cmp r9d,0x3feffffe
00009EB3  0F8EBE000000      jng near 0x9f77
00009EB9  4181F90000F03F    cmp r9d,0x3ff00000
00009EC0  0F8FB5010000      jg near 0xa07b
00009EC6  F20F1025F2420000  movsd xmm4,qword [rel 0xe1c0]
00009ECE  F20F102D42430000  movsd xmm5,qword [rel 0xe218]
00009ED6  48B800000000FFFF  mov rax,0xffffffff00000000
         -FFFF
00009EE0  F20F103538430000  movsd xmm6,qword [rel 0xe220]
00009EE8  F20F103D18430000  movsd xmm7,qword [rel 0xe208]
00009EF0  F20F5CC4          subsd xmm0,xmm4
00009EF4  F20F101514430000  movsd xmm2,qword [rel 0xe210]
00009EFC  F20F59E8          mulsd xmm5,xmm0
00009F00  F20F59F8          mulsd xmm7,xmm0
00009F04  F20F59D0          mulsd xmm2,xmm0
00009F08  F20F5CF5          subsd xmm6,xmm5
00009F0C  F20F102D14430000  movsd xmm5,qword [rel 0xe228]
00009F14  F20F59F0          mulsd xmm6,xmm0
00009F18  F20F59C0          mulsd xmm0,xmm0
00009F1C  F20F5CEE          subsd xmm5,xmm6
00009F20  660F28F7          movapd xmm6,xmm7
00009F24  F20F59C5          mulsd xmm0,xmm5
00009F28  F20F590500430000  mulsd xmm0,qword [rel 0xe230]
00009F30  F20F5CD0          subsd xmm2,xmm0
00009F34  F20F58F2          addsd xmm6,xmm2
00009F38  66480F7EF2        movq rdx,xmm6
00009F3D  4821D0            and rax,rdx
00009F40  66480F6EC0        movq xmm0,rax
00009F45  660F28E8          movapd xmm5,xmm0
00009F49  F20F5CEF          subsd xmm5,xmm7
00009F4D  F20F5CD5          subsd xmm2,xmm5
00009F51  E998FBFFFF        jmp 0x9aee
00009F56  F20F5905DA420000  mulsd xmm0,qword [rel 0xe238]
00009F5E  B9CBFFFFFF        mov ecx,0xffffffcb
00009F63  66480F7EC0        movq rax,xmm0
00009F68  4889C2            mov rdx,rax
00009F6B  48C1EA20          shr rdx,byte 0x20
00009F6F  4989D1            mov r9,rdx
00009F72  E953F9FFFF        jmp 0x98ca
00009F77  85F6              test esi,esi
00009F79  0F8904010000      jns near 0xa083
00009F7F  F20F100571420000  movsd xmm0,qword [rel 0xe1f8]
00009F87  F20F59D8          mulsd xmm3,xmm0
00009F8B  660F28D3          movapd xmm2,xmm3
00009F8F  F20F59D0          mulsd xmm2,xmm0
00009F93  E9C0F8FFFF        jmp 0x9858
00009F98  4889D1            mov rcx,rdx
00009F9B  F20F101D1D420000  movsd xmm3,qword [rel 0xe1c0]
00009FA3  480FBAF13F        btr rcx,byte 0x3f
00009FA8  66480F6EC1        movq xmm0,rcx
00009FAD  85D2              test edx,edx
00009FAF  0F859BFDFFFF      jnz near 0x9d50
00009FB5  B902000000        mov ecx,0x2
00009FBA  4489C2            mov edx,r8d
00009FBD  81E2FFFFFF3F      and edx,0x3fffffff
00009FC3  81FA0000F03F      cmp edx,0x3ff00000
00009FC9  0F84F0020000      jz near 0xa2bf
00009FCF  4585C9            test r9d,r9d
00009FD2  0F84E7020000      jz near 0xa2bf
00009FD8  83F901            cmp ecx,byte +0x1
00009FDB  0F85C2F8FFFF      jnz near 0x98a3
00009FE1  F20F101DDF410000  movsd xmm3,qword [rel 0xe1c8]
00009FE9  E9BDF8FFFF        jmp 0x98ab
00009FEE  85FF              test edi,edi
00009FF0  7557              jnz 0xa049
00009FF2  81FE00000040      cmp esi,0x40000000
00009FF8  0F84F0010000      jz near 0xa1ee
00009FFE  31C9              xor ecx,ecx
0000A000  81FE0000E03F      cmp esi,0x3fe00000
0000A006  0F85B7010000      jnz near 0xa1c3
0000A00C  4989D3            mov r11,rdx
0000A00F  490FBAF33F        btr r11,byte 0x3f
0000A014  66490F6ED3        movq xmm2,r11
0000A019  85D2              test edx,edx
0000A01B  751E              jnz 0xa03b
0000A01D  4489C2            mov edx,r8d
0000A020  81E2FFFFFF3F      and edx,0x3fffffff
0000A026  81FA0000F03F      cmp edx,0x3ff00000
0000A02C  0F84ADFDFFFF      jz near 0x9ddf
0000A032  4585C9            test r9d,r9d
0000A035  0F84A4FDFFFF      jz near 0x9ddf
0000A03B  85C9              test ecx,ecx
0000A03D  0F84A8FCFFFF      jz near 0x9ceb
0000A043  660F28C2          movapd xmm0,xmm2
0000A047  EB8F              jmp short 0x9fd8
0000A049  85D2              test edx,edx
0000A04B  0F859AFCFFFF      jnz near 0x9ceb
0000A051  480FBAF23F        btr rdx,byte 0x3f
0000A056  4181E0FFFFFF3F    and r8d,0x3fffffff
0000A05D  66480F6ED2        movq xmm2,rdx
0000A062  4181F80000F03F    cmp r8d,0x3ff00000
0000A069  7409              jz 0xa074
0000A06B  4585C9            test r9d,r9d
0000A06E  0F8577FCFFFF      jnz near 0x9ceb
0000A074  31C9              xor ecx,ecx
0000A076  E950FDFFFF        jmp 0x9dcb
0000A07B  85F6              test esi,esi
0000A07D  0F8FFCFEFFFF      jg near 0x9f7f
0000A083  F20F100575410000  movsd xmm0,qword [rel 0xe200]
0000A08B  F20F59D8          mulsd xmm3,xmm0
0000A08F  660F28D3          movapd xmm2,xmm3
0000A093  F20F59D0          mulsd xmm2,xmm0
0000A097  E9BCF7FFFF        jmp 0x9858
0000A09C  31C9              xor ecx,ecx
0000A09E  31FF              xor edi,edi
0000A0A0  81FE0000E03F      cmp esi,0x3fe00000
0000A0A6  0F8EDBFAFFFF      jng near 0x9b87
0000A0AC  89F1              mov ecx,esi
0000A0AE  B800001000        mov eax,0x100000
0000A0B3  C1F914            sar ecx,byte 0x14
0000A0B6  81E9FE030000      sub ecx,0x3fe
0000A0BC  D3F8              sar eax,cl
0000A0BE  8D3410            lea esi,[rax+rdx]
0000A0C1  B80000F0FF        mov eax,0xfff00000
0000A0C6  4189F0            mov r8d,esi
0000A0C9  89F7              mov edi,esi
0000A0CB  41C1F814          sar r8d,byte 0x14
0000A0CF  81E7FFFF0F00      and edi,0xfffff
0000A0D5  4181E0FF070000    and r8d,0x7ff
0000A0DC  81CF00001000      or edi,0x100000
0000A0E2  4181E8FF030000    sub r8d,0x3ff
0000A0E9  4489C1            mov ecx,r8d
0000A0EC  D3F8              sar eax,cl
0000A0EE  B914000000        mov ecx,0x14
0000A0F3  21F0              and eax,esi
0000A0F5  4429C1            sub ecx,r8d
0000A0F8  48C1E020          shl rax,byte 0x20
0000A0FC  D3FF              sar edi,cl
0000A0FE  66480F6ED0        movq xmm2,rax
0000A103  85D2              test edx,edx
0000A105  0F8966FAFFFF      jns near 0x9b71
0000A10B  F7DF              neg edi
0000A10D  E95FFAFFFF        jmp 0x9b71
0000A112  660F1F440000      nop word [rax+rax+0x0]
0000A118  55                push rbp
0000A119  660F28C4          movapd xmm0,xmm4
0000A11D  4889E5            mov rbp,rsp
0000A120  E86BF3FFFF        call 0x9490
0000A125  5D                pop rbp
0000A126  660F28D0          movapd xmm2,xmm0
0000A12A  F20F59D3          mulsd xmm2,xmm3
0000A12E  660F28C2          movapd xmm0,xmm2
0000A132  C3                ret
0000A133  660FEFD2          pxor xmm2,xmm2
0000A137  85F6              test esi,esi
0000A139  0F8F35FCFFFF      jg near 0x9d74
0000A13F  E914F7FFFF        jmp 0x9858
0000A144  F20F102D84400000  movsd xmm5,qword [rel 0xe1d0]
0000A14C  F20F103584400000  movsd xmm6,qword [rel 0xe1d8]
0000A154  41B800000400      mov r8d,0x40000
0000A15A  F2440F101D7D4000  movsd xmm11,qword [rel 0xe1e0]
         -00
0000A163  F20F102555400000  movsd xmm4,qword [rel 0xe1c0]
0000A16B  E9AEF7FFFF        jmp 0x991e
0000A170  85F6              test esi,esi
0000A172  0F89E0F6FFFF      jns near 0x9858
0000A178  660F28D1          movapd xmm2,xmm1
0000A17C  660F57155C410000  xorpd xmm2,oword [rel 0xe2e0]
0000A184  E9CFF6FFFF        jmp 0x9858
0000A189  85FF              test edi,edi
0000A18B  0F85B8FEFFFF      jnz near 0xa049
0000A191  B914000000        mov ecx,0x14
0000A196  4429D1            sub ecx,r10d
0000A199  4189C2            mov r10d,eax
0000A19C  41D3FA            sar r10d,cl
0000A19F  4589D3            mov r11d,r10d
0000A1A2  41D3E3            shl r11d,cl
0000A1A5  4439D8            cmp eax,r11d
0000A1A8  0F84C8000000      jz near 0xa276
0000A1AE  3D0000F03F        cmp eax,0x3ff00000
0000A1B3  0F8447FCFFFF      jz near 0x9e00
0000A1B9  81FE00000040      cmp esi,0x40000000
0000A1BF  742D              jz 0xa1ee
0000A1C1  31C9              xor ecx,ecx
0000A1C3  4989D3            mov r11,rdx
0000A1C6  490FBAF33F        btr r11,byte 0x3f
0000A1CB  66490F6ED3        movq xmm2,r11
0000A1D0  85D2              test edx,edx
0000A1D2  746A              jz 0xa23e
0000A1D4  4585C0            test r8d,r8d
0000A1D7  0F885EFEFFFF      js near 0xa03b
0000A1DD  F20F101DDB3F0000  movsd xmm3,qword [rel 0xe1c0]
0000A1E5  660F28C2          movapd xmm0,xmm2
0000A1E9  E9BDF6FFFF        jmp 0x98ab
0000A1EE  660F28D0          movapd xmm2,xmm0
0000A1F2  F20F59D0          mulsd xmm2,xmm0
0000A1F6  E95DF6FFFF        jmp 0x9858
0000A1FB  83F901            cmp ecx,byte +0x1
0000A1FE  0F8554F6FFFF      jnz near 0x9858
0000A204  660F5715D4400000  xorpd xmm2,oword [rel 0xe2e0]
0000A20C  E947F6FFFF        jmp 0x9858
0000A211  4183E201          and r10d,byte +0x1
0000A215  B902000000        mov ecx,0x2
0000A21A  4429D1            sub ecx,r10d
0000A21D  85FF              test edi,edi
0000A21F  7566              jnz 0xa287
0000A221  81FE00000040      cmp esi,0x40000000
0000A227  74C5              jz 0xa1ee
0000A229  4989D3            mov r11,rdx
0000A22C  490FBAF33F        btr r11,byte 0x3f
0000A231  66490F6ED3        movq xmm2,r11
0000A236  85D2              test edx,edx
0000A238  0F8505FEFFFF      jnz near 0xa043
0000A23E  4489C2            mov edx,r8d
0000A241  81E2FFFFFF3F      and edx,0x3fffffff
0000A247  81FA0000F03F      cmp edx,0x3ff00000
0000A24D  7405              jz 0xa254
0000A24F  4585C9            test r9d,r9d
0000A252  7580              jnz 0xa1d4
0000A254  85F6              test esi,esi
0000A256  7910              jns 0xa268
0000A258  F20F1005603F0000  movsd xmm0,qword [rel 0xe1c0]
0000A260  F20F5EC2          divsd xmm0,xmm2
0000A264  660F28D0          movapd xmm2,xmm0
0000A268  4585C0            test r8d,r8d
0000A26B  0F89E7F5FFFF      jns near 0x9858
0000A271  E969FBFFFF        jmp 0x9ddf
0000A276  4183E201          and r10d,byte +0x1
0000A27A  B902000000        mov ecx,0x2
0000A27F  4429D1            sub ecx,r10d
0000A282  E986FAFFFF        jmp 0x9d0d
0000A287  4989D3            mov r11,rdx
0000A28A  490FBAF33F        btr r11,byte 0x3f
0000A28F  66490F6EC3        movq xmm0,r11
0000A294  85D2              test edx,edx
0000A296  0F841EFDFFFF      jz near 0x9fba
0000A29C  E937FDFFFF        jmp 0x9fd8
0000A2A1  480FBAF23F        btr rdx,byte 0x3f
0000A2A6  31C9              xor ecx,ecx
0000A2A8  66480F6ED2        movq xmm2,rdx
0000A2AD  E9FFFAFFFF        jmp 0x9db1
0000A2B2  85C9              test ecx,ecx
0000A2B4  0F8523FFFFFF      jnz near 0xa1dd
0000A2BA  E92CFAFFFF        jmp 0x9ceb
0000A2BF  660F28D0          movapd xmm2,xmm0
0000A2C3  E903FBFFFF        jmp 0x9dcb
0000A2C8  0F1F840000000000  nop dword [rax+rax+0x0]
0000A2D0  55                push rbp
0000A2D1  4889F0            mov rax,rsi
0000A2D4  4189D0            mov r8d,edx
0000A2D7  41BB01000000      mov r11d,0x1
0000A2DD  48C1E820          shr rax,byte 0x20
0000A2E1  4189C2            mov r10d,eax
0000A2E4  4189C1            mov r9d,eax
0000A2E7  4889E5            mov rbp,rsp
0000A2EA  4154              push r12
0000A2EC  4989FC            mov r12,rdi
0000A2EF  49C1EC20          shr r12,byte 0x20
0000A2F3  53                push rbx
0000A2F4  4529E2            sub r10d,r12d
0000A2F7  29FE              sub esi,edi
0000A2F9  4489E2            mov edx,r12d
0000A2FC  7908              jns 0xa306
0000A2FE  F7DE              neg esi
0000A300  41BBFFFFFFFF      mov r11d,0xffffffff
0000A306  8D1C36            lea ebx,[rsi+rsi]
0000A309  89D9              mov ecx,ebx
0000A30B  4429D1            sub ecx,r10d
0000A30E  4589E2            mov r10d,r12d
0000A311  4129C2            sub r10d,eax
0000A314  4101F2            add r10d,esi
0000A317  4501D2            add r10d,r10d
0000A31A  4139C4            cmp r12d,eax
0000A31D  7217              jc 0xa336
0000A31F  EB36              jmp short 0xa357
0000A321  0F1F8000000000    nop dword [rax+0x0]
0000A328  83C201            add edx,byte +0x1
0000A32B  4401DF            add edi,r11d
0000A32E  4401D1            add ecx,r10d
0000A331  4439CA            cmp edx,r9d
0000A334  7421              jz 0xa357
0000A336  89D0              mov eax,edx
0000A338  89FE              mov esi,edi
0000A33A  C1E00A            shl eax,byte 0xa
0000A33D  4801F0            add rax,rsi
0000A340  6644898400000020  mov [rax+rax+0x200000],r8w
         -00
0000A349  85C9              test ecx,ecx
0000A34B  75DB              jnz 0xa328
0000A34D  83C201            add edx,byte +0x1
0000A350  89D9              mov ecx,ebx
0000A352  4439CA            cmp edx,r9d
0000A355  75DF              jnz 0xa336
0000A357  5B                pop rbx
0000A358  415C              pop r12
0000A35A  5D                pop rbp
0000A35B  C3                ret
0000A35C  0F1F4000          nop dword [rax+0x0]
0000A360  55                push rbp
0000A361  4889F8            mov rax,rdi
0000A364  4189F9            mov r9d,edi
0000A367  41BA03000000      mov r10d,0x3
0000A36D  4189C0            mov r8d,eax
0000A370  89F1              mov ecx,esi
0000A372  4889E5            mov rbp,rsp
0000A375  4154              push r12
0000A377  53                push rbx
0000A378  4889FB            mov rbx,rdi
0000A37B  8D3C36            lea edi,[rsi+rsi]
0000A37E  48C1EB20          shr rbx,byte 0x20
0000A382  4129FA            sub r10d,edi
0000A385  8D3C1E            lea edi,[rsi+rbx]
0000A388  C1E70A            shl edi,byte 0xa
0000A38B  4C01C7            add rdi,r8
0000A38E  6689943F00002000  mov [rdi+rdi+0x200000],dx
0000A396  89DF              mov edi,ebx
0000A398  29F7              sub edi,esi
0000A39A  C1E70A            shl edi,byte 0xa
0000A39D  4C01C7            add rdi,r8
0000A3A0  448D0406          lea r8d,[rsi+rax]
0000A3A4  29F0              sub eax,esi
0000A3A6  6689943F00002000  mov [rdi+rdi+0x200000],dx
0000A3AE  89DF              mov edi,ebx
0000A3B0  C1E70A            shl edi,byte 0xa
0000A3B3  4901F8            add r8,rdi
0000A3B6  4801F8            add rax,rdi
0000A3B9  6643899400000020  mov [r8+r8+0x200000],dx
         -00
0000A3C2  6689940000002000  mov [rax+rax+0x200000],dx
0000A3CA  85F6              test esi,esi
0000A3CC  0F88D6000000      js near 0xa4a8
0000A3D2  448D43FF          lea r8d,[rbx-0x1]
0000A3D6  4189DB            mov r11d,ebx
0000A3D9  31FF              xor edi,edi
0000A3DB  C1E30B            shl ebx,byte 0xb
0000A3DE  41C1E00A          shl r8d,byte 0xa
0000A3E2  E9A7000000        jmp 0xa48e
0000A3E7  660F1F8400000000  nop word [rax+rax+0x0]
         -00
0000A3F0  83E901            sub ecx,byte +0x1
0000A3F3  89F8              mov eax,edi
0000A3F5  29C8              sub eax,ecx
0000A3F7  458D54820A        lea r10d,[r10+rax*4+0xa]
0000A3FC  418D040B          lea eax,[r11+rcx]
0000A400  458D2439          lea r12d,[r9+rdi]
0000A404  C1E00A            shl eax,byte 0xa
0000A407  4A8D3420          lea rsi,[rax+r12]
0000A40B  6689943600002000  mov [rsi+rsi+0x200000],dx
0000A413  4489DE            mov esi,r11d
0000A416  29CE              sub esi,ecx
0000A418  C1E60A            shl esi,byte 0xa
0000A41B  4901F4            add r12,rsi
0000A41E  6643899424000020  mov [r12+r12+0x200000],dx
         -00
0000A427  4589CC            mov r12d,r9d
0000A42A  4129FC            sub r12d,edi
0000A42D  4C01E0            add rax,r12
0000A430  4901F4            add r12,rsi
0000A433  89DE              mov esi,ebx
0000A435  6689940000002000  mov [rax+rax+0x200000],dx
0000A43D  4429C6            sub esi,r8d
0000A440  418D0409          lea eax,[r9+rcx]
0000A444  6643899424000020  mov [r12+r12+0x200000],dx
         -00
0000A44D  4C8D2406          lea r12,[rsi+rax]
0000A451  6643899424000020  mov [r12+r12+0x200000],dx
         -00
0000A45A  4589C4            mov r12d,r8d
0000A45D  4181E800040000    sub r8d,0x400
0000A464  4C01E0            add rax,r12
0000A467  6689940000002000  mov [rax+rax+0x200000],dx
0000A46F  4489C8            mov eax,r9d
0000A472  29C8              sub eax,ecx
0000A474  4801C6            add rsi,rax
0000A477  4C01E0            add rax,r12
0000A47A  6689943600002000  mov [rsi+rsi+0x200000],dx
0000A482  6689940000002000  mov [rax+rax+0x200000],dx
0000A48A  39F9              cmp ecx,edi
0000A48C  7C1A              jl 0xa4a8
0000A48E  83C701            add edi,byte +0x1
0000A491  4585D2            test r10d,r10d
0000A494  0F8F56FFFFFF      jg near 0xa3f0
0000A49A  458D54BA06        lea r10d,[r10+rdi*4+0x6]
0000A49F  E958FFFFFF        jmp 0xa3fc
0000A4A4  0F1F4000          nop dword [rax+0x0]
0000A4A8  5B                pop rbx
0000A4A9  415C              pop r12
0000A4AB  5D                pop rbp
0000A4AC  C3                ret
0000A4AD  0F1F00            nop dword [rax]
0000A4B0  55                push rbp
0000A4B1  4889F1            mov rcx,rsi
0000A4B4  4889FE            mov rsi,rdi
0000A4B7  4889F8            mov rax,rdi
0000A4BA  48C1EE20          shr rsi,byte 0x20
0000A4BE  4889E5            mov rbp,rsp
0000A4C1  4155              push r13
0000A4C3  4154              push r12
0000A4C5  4189CC            mov r12d,ecx
0000A4C8  53                push rbx
0000A4C9  4889CB            mov rbx,rcx
0000A4CC  4129FC            sub r12d,edi
0000A4CF  48C1EB20          shr rbx,byte 0x20
0000A4D3  4189DD            mov r13d,ebx
0000A4D6  4129F5            sub r13d,esi
0000A4D9  4539E5            cmp r13d,r12d
0000A4DC  7372              jnc 0xa550
0000A4DE  89D7              mov edi,edx
0000A4E0  39C1              cmp ecx,eax
0000A4E2  0F8398000000      jnc near 0xa580
0000A4E8  89C2              mov edx,eax
0000A4EA  4189D8            mov r8d,ebx
0000A4ED  4189C1            mov r9d,eax
0000A4F0  29CA              sub edx,ecx
0000A4F2  29DE              sub esi,ebx
0000A4F4  BB01000000        mov ebx,0x1
0000A4F9  4189F3            mov r11d,esi
0000A4FC  0F88DE000000      js near 0xa5e0
0000A502  4501DB            add r11d,r11d
0000A505  4401E6            add esi,r12d
0000A508  4589DA            mov r10d,r11d
0000A50B  01F6              add esi,esi
0000A50D  4129D2            sub r10d,edx
0000A510  89CA              mov edx,ecx
0000A512  EB13              jmp short 0xa527
0000A514  0F1F4000          nop dword [rax+0x0]
0000A518  4883C201          add rdx,byte +0x1
0000A51C  4101D8            add r8d,ebx
0000A51F  4101F2            add r10d,esi
0000A522  4439CA            cmp edx,r9d
0000A525  7322              jnc 0xa549
0000A527  4489C0            mov eax,r8d
0000A52A  C1E00A            shl eax,byte 0xa
0000A52D  4801D0            add rax,rdx
0000A530  6689BC0000002000  mov [rax+rax+0x200000],di
0000A538  4585D2            test r10d,r10d
0000A53B  75DB              jnz 0xa518
0000A53D  4883C201          add rdx,byte +0x1
0000A541  4589DA            mov r10d,r11d
0000A544  4439CA            cmp edx,r9d
0000A547  72DE              jc 0xa527
0000A549  5B                pop rbx
0000A54A  415C              pop r12
0000A54C  415D              pop r13
0000A54E  5D                pop rbp
0000A54F  C3                ret
0000A550  0FB7D2            movzx edx,dx
0000A553  39F3              cmp ebx,esi
0000A555  7211              jc 0xa568
0000A557  5B                pop rbx
0000A558  4889CE            mov rsi,rcx
0000A55B  415C              pop r12
0000A55D  415D              pop r13
0000A55F  5D                pop rbp
0000A560  E96BFDFFFF        jmp 0xa2d0
0000A565  0F1F00            nop dword [rax]
0000A568  5B                pop rbx
0000A569  4889FE            mov rsi,rdi
0000A56C  415C              pop r12
0000A56E  4889CF            mov rdi,rcx
0000A571  415D              pop r13
0000A573  5D                pop rbp
0000A574  E957FDFFFF        jmp 0xa2d0
0000A579  0F1F8000000000    nop dword [rax+0x0]
0000A580  4189F2            mov r10d,esi
0000A583  4189CB            mov r11d,ecx
0000A586  41B901000000      mov r9d,0x1
0000A58C  4585ED            test r13d,r13d
0000A58F  785F              js 0xa5f0
0000A591  478D442D00        lea r8d,[r13+r13+0x0]
0000A596  4489C6            mov esi,r8d
0000A599  4429E6            sub esi,r12d
0000A59C  39C8              cmp eax,ecx
0000A59E  73A9              jnc 0xa549
0000A5A0  89C2              mov edx,eax
0000A5A2  29CA              sub edx,ecx
0000A5A4  428D0C2A          lea ecx,[rdx+r13]
0000A5A8  89C2              mov edx,eax
0000A5AA  01C9              add ecx,ecx
0000A5AC  EB10              jmp short 0xa5be
0000A5AE  6690              xchg ax,ax
0000A5B0  4501CA            add r10d,r9d
0000A5B3  01CE              add esi,ecx
0000A5B5  4883C201          add rdx,byte +0x1
0000A5B9  4439DA            cmp edx,r11d
0000A5BC  738B              jnc 0xa549
0000A5BE  4489D0            mov eax,r10d
0000A5C1  C1E00A            shl eax,byte 0xa
0000A5C4  4801D0            add rax,rdx
0000A5C7  6689BC0000002000  mov [rax+rax+0x200000],di
0000A5CF  85F6              test esi,esi
0000A5D1  75DD              jnz 0xa5b0
0000A5D3  4489C6            mov esi,r8d
0000A5D6  EBDD              jmp short 0xa5b5
0000A5D8  0F1F840000000000  nop dword [rax+rax+0x0]
0000A5E0  F7DE              neg esi
0000A5E2  BBFFFFFFFF        mov ebx,0xffffffff
0000A5E7  4189F3            mov r11d,esi
0000A5EA  E913FFFFFF        jmp 0xa502
0000A5EF  90                nop
0000A5F0  41F7DD            neg r13d
0000A5F3  41B9FFFFFFFF      mov r9d,0xffffffff
0000A5F9  EB96              jmp short 0xa591
0000A5FB  0F1F440000        nop dword [rax+rax+0x0]
0000A600  83EF30            sub edi,byte +0x30
0000A603  4080FF09          cmp dil,0x9
0000A607  0F96C0            setna al
0000A60A  C3                ret
0000A60B  0F1F440000        nop dword [rax+rax+0x0]
0000A610  8D4FBF            lea ecx,[rdi-0x41]
0000A613  89F8              mov eax,edi
0000A615  8D5720            lea edx,[rdi+0x20]
0000A618  83F91A            cmp ecx,byte +0x1a
0000A61B  0F42C2            cmovc eax,edx
0000A61E  C3                ret
0000A61F  90                nop
0000A620  8D57F7            lea edx,[rdi-0x9]
0000A623  B801000000        mov eax,0x1
0000A628  83FA04            cmp edx,byte +0x4
0000A62B  7608              jna 0xa635
0000A62D  31C0              xor eax,eax
0000A62F  83FF20            cmp edi,byte +0x20
0000A632  0F94C0            setz al
0000A635  C3                ret
0000A636  662E0F1F84000000  nop word [cs:rax+rax+0x0]
         -0000
0000A640  400FB6F6          movzx esi,sil
0000A644  89F8              mov eax,edi
0000A646  B901000000        mov ecx,0x1
0000A64B  39F7              cmp edi,esi
0000A64D  7C0B              jl 0xa65a
0000A64F  90                nop
0000A650  99                cdq
0000A651  83C101            add ecx,byte +0x1
0000A654  F7FE              idiv esi
0000A656  39F0              cmp eax,esi
0000A658  7DF6              jnl 0xa650
0000A65A  89C8              mov eax,ecx
0000A65C  C3                ret
0000A65D  0F1F00            nop dword [rax]
0000A660  55                push rbp
0000A661  4889E5            mov rbp,rsp
0000A664  53                push rbx
0000A665  89FB              mov ebx,edi
0000A667  4883EC08          sub rsp,byte +0x8
0000A66B  E870ECFFFF        call 0x92e0
0000A670  80FB0A            cmp bl,0xa
0000A673  742B              jz 0xa6a0
0000A675  488D1400          lea rdx,[rax+rax]
0000A679  83C001            add eax,byte +0x1
0000A67C  81E2FEFF0100      and edx,0x1fffe
0000A682  889A00002000      mov [rdx+0x200000],bl
0000A688  0FB7F8            movzx edi,ax
0000A68B  E820ECFFFF        call 0x92b0
0000A690  0FBEC3            movsx eax,bl
0000A693  488B5DF8          mov rbx,[rbp-0x8]
0000A697  C9                leave
0000A698  C3                ret
0000A699  0F1F8000000000    nop dword [rax+0x0]
0000A6A0  6669D0CDCC        imul dx,ax,word 0xcccd
0000A6A5  66C1CA04          ror dx,byte 0x4
0000A6A9  6681FA3303        cmp dx,0x333
0000A6AE  76D8              jna 0xa688
0000A6B0  488D1400          lea rdx,[rax+rax]
0000A6B4  83C001            add eax,byte +0x1
0000A6B7  81E2FEFF0100      and edx,0x1fffe
0000A6BD  C6820000200020    mov byte [rdx+0x200000],0x20
0000A6C4  6669D0CDCC        imul dx,ax,word 0xcccd
0000A6C9  66C1CA04          ror dx,byte 0x4
0000A6CD  6681FA3303        cmp dx,0x333
0000A6D2  77DC              ja 0xa6b0
0000A6D4  EBB2              jmp short 0xa688
0000A6D6  662E0F1F84000000  nop word [cs:rax+rax+0x0]
         -0000
0000A6E0  55                push rbp
0000A6E1  4889E5            mov rbp,rsp
0000A6E4  4157              push r15
0000A6E6  4156              push r14
0000A6E8  4155              push r13
0000A6EA  4154              push r12
0000A6EC  53                push rbx
0000A6ED  4883EC58          sub rsp,byte +0x58
0000A6F1  0FB60F            movzx ecx,byte [rdi]
0000A6F4  48897598          mov [rbp-0x68],rsi
0000A6F8  84C9              test cl,cl
0000A6FA  0F8418010000      jz near 0xa818
0000A700  4989FE            mov r14,rdi
0000A703  4531E4            xor r12d,r12d
0000A706  4531FF            xor r15d,r15d
0000A709  EB28              jmp short 0xa733
0000A70B  0F1F440000        nop dword [rax+rax+0x0]
0000A710  0FBEF9            movsx edi,cl
0000A713  4183C401          add r12d,byte +0x1
0000A717  E844FFFFFF        call 0xa660
0000A71C  458D4701          lea r8d,[r15+0x1]
0000A720  4963C0            movsxd rax,r8d
0000A723  410FB60C06        movzx ecx,byte [r14+rax]
0000A728  4989C7            mov r15,rax
0000A72B  84C9              test cl,cl
0000A72D  0F84E8000000      jz near 0xa81b
0000A733  80F925            cmp cl,0x25
0000A736  75D8              jnz 0xa710
0000A738  458D4701          lea r8d,[r15+0x1]
0000A73C  C6459400          mov byte [rbp-0x6c],0x0
0000A740  4963D0            movsxd rdx,r8d
0000A743  C6459200          mov byte [rbp-0x6e],0x0
0000A747  C6459300          mov byte [rbp-0x6d],0x0
0000A74B  4C01F2            add rdx,r14
0000A74E  4989D5            mov r13,rdx
0000A751  0F1F8000000000    nop dword [rax+0x0]
0000A758  410FBE7D00        movsx edi,byte [r13+0x0]
0000A75D  8D47E0            lea eax,[rdi-0x20]
0000A760  3C10              cmp al,0x10
0000A762  770C              ja 0xa770
0000A764  0FB6C0            movzx eax,al
0000A767  FF24C5F0E20000    jmp [rax*8+0xe2f0]
0000A76E  6690              xchg ax,ax
0000A770  4129D0            sub r8d,edx
0000A773  438D0428          lea eax,[r8+r13]
0000A777  894588            mov [rbp-0x78],eax
0000A77A  4189C7            mov r15d,eax
0000A77D  E87EFEFFFF        call 0xa600
0000A782  84C0              test al,al
0000A784  0F85CE000000      jnz near 0xa858
0000A78A  410FB64500        movzx eax,byte [r13+0x0]
0000A78F  4531ED            xor r13d,r13d
0000A792  3C2A              cmp al,0x2a
0000A794  0F84D6010000      jz near 0xa970
0000A79A  3C2E              cmp al,0x2e
0000A79C  0F8400010000      jz near 0xa8a2
0000A7A2  458D4701          lea r8d,[r15+0x1]
0000A7A6  4963C8            movsxd rcx,r8d
0000A7A9  4889CB            mov rbx,rcx
0000A7AC  4D8D0C0E          lea r9,[r14+rcx]
0000A7B0  8D48B4            lea ecx,[rax-0x4c]
0000A7B3  80F92E            cmp cl,0x2e
0000A7B6  7778              ja 0xa830
0000A7B8  48BE010000400041  mov rsi,0x410040000001
         -0000
0000A7C2  480FA3CE          bt rsi,rcx
0000A7C6  0F8284010000      jc near 0xa950
0000A7CC  80F920            cmp cl,0x20
0000A7CF  0F845C010000      jz near 0xa931
0000A7D5  31FF              xor edi,edi
0000A7D7  80F91C            cmp cl,0x1c
0000A7DA  0F84FF000000      jz near 0xa8df
0000A7E0  83E858            sub eax,byte +0x58
0000A7E3  3C20              cmp al,0x20
0000A7E5  7751              ja 0xa838
0000A7E7  0FB6C0            movzx eax,al
0000A7EA  FF24C578E30000    jmp [rax*8+0xe378]
0000A7F1  0F1F8000000000    nop dword [rax+0x0]
0000A7F8  C6459401          mov byte [rbp-0x6c],0x1
0000A7FC  4983C501          add r13,byte +0x1
0000A800  E953FFFFFF        jmp 0xa758
0000A805  0F1F00            nop dword [rax]
0000A808  C6459301          mov byte [rbp-0x6d],0x1
0000A80C  4983C501          add r13,byte +0x1
0000A810  E943FFFFFF        jmp 0xa758
0000A815  0F1F00            nop dword [rax]
0000A818  4531E4            xor r12d,r12d
0000A81B  4883C458          add rsp,byte +0x58
0000A81F  4489E0            mov eax,r12d
0000A822  5B                pop rbx
0000A823  415C              pop r12
0000A825  415D              pop r13
0000A827  415E              pop r14
0000A829  415F              pop r15
0000A82B  5D                pop rbp
0000A82C  C3                ret
0000A82D  0F1F00            nop dword [rax]
0000A830  3C25              cmp al,0x25
0000A832  0F84CD060000      jz near 0xaf05
0000A838  4183C401          add r12d,byte +0x1
0000A83C  E9DFFEFFFF        jmp 0xa720
0000A841  0F1F8000000000    nop dword [rax+0x0]
0000A848  C6459201          mov byte [rbp-0x6e],0x1
0000A84C  4983C501          add r13,byte +0x1
0000A850  E903FFFFFF        jmp 0xa758
0000A855  0F1F00            nop dword [rax]
0000A858  48637D88          movsxd rdi,dword [rbp-0x78]
0000A85C  4531ED            xor r13d,r13d
0000A85F  4D8D3C3E          lea r15,[r14+rdi]
0000A863  4C89FB            mov rbx,r15
0000A866  EB19              jmp short 0xa881
0000A868  0F1F840000000000  nop dword [rax+rax+0x0]
0000A870  0FBE03            movsx eax,byte [rbx]
0000A873  438D54AD00        lea edx,[r13+r13*4+0x0]
0000A878  4883C301          add rbx,byte +0x1
0000A87C  448D6C50D0        lea r13d,[rax+rdx*2-0x30]
0000A881  0FBE3B            movsx edi,byte [rbx]
0000A884  E877FDFFFF        call 0xa600
0000A889  84C0              test al,al
0000A88B  75E3              jnz 0xa870
0000A88D  8B5588            mov edx,[rbp-0x78]
0000A890  0FB603            movzx eax,byte [rbx]
0000A893  4429FA            sub edx,r15d
0000A896  448D3C1A          lea r15d,[rdx+rbx]
0000A89A  3C2E              cmp al,0x2e
0000A89C  0F8500FFFFFF      jnz near 0xa7a2
0000A8A2  458D4701          lea r8d,[r15+0x1]
0000A8A6  4963C8            movsxd rcx,r8d
0000A8A9  44894584          mov [rbp-0x7c],r8d
0000A8AD  4C01F1            add rcx,r14
0000A8B0  0FBE39            movsx edi,byte [rcx]
0000A8B3  48894D88          mov [rbp-0x78],rcx
0000A8B7  E844FDFFFF        call 0xa600
0000A8BC  488B4D88          mov rcx,[rbp-0x78]
0000A8C0  448B4584          mov r8d,[rbp-0x7c]
0000A8C4  84C0              test al,al
0000A8C6  0F8553010000      jnz near 0xaa1f
0000A8CC  0FB601            movzx eax,byte [rcx]
0000A8CF  3C2A              cmp al,0x2a
0000A8D1  0F84E6050000      jz near 0xaebd
0000A8D7  4589C7            mov r15d,r8d
0000A8DA  E9C3FEFFFF        jmp 0xa7a2
0000A8DF  410FB609          movzx ecx,byte [r9]
0000A8E3  B868000000        mov eax,0x68
0000A8E8  80F968            cmp cl,0x68
0000A8EB  7567              jnz 0xa954
0000A8ED  418D5F02          lea ebx,[r15+0x2]
0000A8F1  4863C3            movsxd rax,ebx
0000A8F4  410FB60C06        movzx ecx,byte [r14+rax]
0000A8F9  B848000000        mov eax,0x48
0000A8FE  80F925            cmp cl,0x25
0000A901  7556              jnz 0xa959
0000A903  E8D8E9FFFF        call 0x92e0
0000A908  4183C401          add r12d,byte +0x1
0000A90C  488D1400          lea rdx,[rax+rax]
0000A910  83C001            add eax,byte +0x1
0000A913  81E2FEFF0100      and edx,0x1fffe
0000A919  0FB7F8            movzx edi,ax
0000A91C  C6820000200025    mov byte [rdx+0x200000],0x25
0000A923  E888E9FFFF        call 0x92b0
0000A928  448D4301          lea r8d,[rbx+0x1]
0000A92C  E9EFFDFFFF        jmp 0xa720
0000A931  410FB609          movzx ecx,byte [r9]
0000A935  B86C000000        mov eax,0x6c
0000A93A  80F96C            cmp cl,0x6c
0000A93D  7515              jnz 0xa954
0000A93F  418D5F02          lea ebx,[r15+0x2]
0000A943  4863D3            movsxd rdx,ebx
0000A946  410FB60C16        movzx ecx,byte [r14+rdx]
0000A94B  EB07              jmp short 0xa954
0000A94D  0F1F00            nop dword [rax]
0000A950  410FB609          movzx ecx,byte [r9]
0000A954  80F925            cmp cl,0x25
0000A957  74AA              jz 0xa903
0000A959  89C7              mov edi,eax
0000A95B  448D4301          lea r8d,[rbx+0x1]
0000A95F  89C8              mov eax,ecx
0000A961  E97AFEFFFF        jmp 0xa7e0
0000A966  662E0F1F84000000  nop word [cs:rax+rax+0x0]
         -0000
0000A970  488B7598          mov rsi,[rbp-0x68]
0000A974  8B06              mov eax,[rsi]
0000A976  83F82F            cmp eax,byte +0x2f
0000A979  7725              ja 0xa9a0
0000A97B  89C2              mov edx,eax
0000A97D  83C008            add eax,byte +0x8
0000A980  48035610          add rdx,[rsi+0x10]
0000A984  8906              mov [rsi],eax
0000A986  448B7D88          mov r15d,[rbp-0x78]
0000A98A  448B2A            mov r13d,[rdx]
0000A98D  4183C701          add r15d,byte +0x1
0000A991  4963C7            movsxd rax,r15d
0000A994  410FB60406        movzx eax,byte [r14+rax]
0000A999  E9FCFDFFFF        jmp 0xa79a
0000A99E  6690              xchg ax,ax
0000A9A0  488B7598          mov rsi,[rbp-0x68]
0000A9A4  488B5608          mov rdx,[rsi+0x8]
0000A9A8  488D4208          lea rax,[rdx+0x8]
0000A9AC  48894608          mov [rsi+0x8],rax
0000A9B0  EBD4              jmp short 0xa986
0000A9B2  660F1F440000      nop word [rax+rax+0x0]
0000A9B8  488B7598          mov rsi,[rbp-0x68]
0000A9BC  8B06              mov eax,[rsi]
0000A9BE  83F82F            cmp eax,byte +0x2f
0000A9C1  0F87E1040000      ja near 0xaea8
0000A9C7  89C2              mov edx,eax
0000A9C9  83C008            add eax,byte +0x8
0000A9CC  48035610          add rdx,[rsi+0x10]
0000A9D0  8906              mov [rsi],eax
0000A9D2  8B3A              mov edi,[rdx]
0000A9D4  488D75A0          lea rsi,[rbp-0x60]
0000A9D8  BA0A000000        mov edx,0xa
0000A9DD  44894594          mov [rbp-0x6c],r8d
0000A9E1  E8AA080000        call 0xb290
0000A9E6  8B45A0            mov eax,[rbp-0x60]
0000A9E9  448B4594          mov r8d,[rbp-0x6c]
0000A9ED  85C0              test eax,eax
0000A9EF  0F842BFDFFFF      jz near 0xa720
0000A9F5  488D5DA4          lea rbx,[rbp-0x5c]
0000A9F9  4589C5            mov r13d,r8d
0000A9FC  0F1F4000          nop dword [rax+0x0]
0000AA00  0FBEF8            movsx edi,al
0000AA03  4883C304          add rbx,byte +0x4
0000AA07  4183C401          add r12d,byte +0x1
0000AA0B  E850FCFFFF        call 0xa660
0000AA10  8B43FC            mov eax,[rbx-0x4]
0000AA13  85C0              test eax,eax
0000AA15  75E9              jnz 0xaa00
0000AA17  4589E8            mov r8d,r13d
0000AA1A  E901FDFFFF        jmp 0xa720
0000AA1F  4889CB            mov rbx,rcx
0000AA22  660F1F440000      nop word [rax+rax+0x0]
0000AA28  0FBE3B            movsx edi,byte [rbx]
0000AA2B  4989DF            mov r15,rbx
0000AA2E  4883C301          add rbx,byte +0x1
0000AA32  E8C9FBFFFF        call 0xa600
0000AA37  84C0              test al,al
0000AA39  75ED              jnz 0xaa28
0000AA3B  488B4D88          mov rcx,[rbp-0x78]
0000AA3F  8B5584            mov edx,[rbp-0x7c]
0000AA42  4D89F9            mov r9,r15
0000AA45  410FB601          movzx eax,byte [r9]
0000AA49  29CA              sub edx,ecx
0000AA4B  468D3C3A          lea r15d,[rdx+r15]
0000AA4F  E94EFDFFFF        jmp 0xa7a2
0000AA54  488B4598          mov rax,[rbp-0x68]
0000AA58  8D4FB8            lea ecx,[rdi-0x48]
0000AA5B  8B00              mov eax,[rax]
0000AA5D  80F932            cmp cl,0x32
0000AA60  7724              ja 0xaa86
0000AA62  48BE000000001410  mov rsi,0x4101400000000
         -0400
0000AA6C  BA01000000        mov edx,0x1
0000AA71  48D3E2            shl rdx,cl
0000AA74  4885F2            test rdx,rsi
0000AA77  0F8593060000      jnz near 0xb110
0000AA7D  83E201            and edx,byte +0x1
0000AA80  0F8563060000      jnz near 0xb0e9
0000AA86  83F82F            cmp eax,byte +0x2f
0000AA89  0F8754040000      ja near 0xaee3
0000AA8F  488B7598          mov rsi,[rbp-0x68]
0000AA93  89C2              mov edx,eax
0000AA95  83C008            add eax,byte +0x8
0000AA98  8906              mov [rsi],eax
0000AA9A  48035610          add rdx,[rsi+0x10]
0000AA9E  488B02            mov rax,[rdx]
0000AAA1  448920            mov [rax],r12d
0000AAA4  E98FFDFFFF        jmp 0xa838
0000AAA9  488B7598          mov rsi,[rbp-0x68]
0000AAAD  8B06              mov eax,[rsi]
0000AAAF  83F82F            cmp eax,byte +0x2f
0000AAB2  0F87B1030000      ja near 0xae69
0000AAB8  89C2              mov edx,eax
0000AABA  83C008            add eax,byte +0x8
0000AABD  48035610          add rdx,[rsi+0x10]
0000AAC1  8906              mov [rsi],eax
0000AAC3  0FBE3A            movsx edi,byte [rdx]
0000AAC6  44894594          mov [rbp-0x6c],r8d
0000AACA  4183C401          add r12d,byte +0x1
0000AACE  E88DFBFFFF        call 0xa660
0000AAD3  448B4594          mov r8d,[rbp-0x6c]
0000AAD7  E944FCFFFF        jmp 0xa720
0000AADC  488B7598          mov rsi,[rbp-0x68]
0000AAE0  8B06              mov eax,[rsi]
0000AAE2  83F82F            cmp eax,byte +0x2f
0000AAE5  0F87A8030000      ja near 0xae93
0000AAEB  89C2              mov edx,eax
0000AAED  83C008            add eax,byte +0x8
0000AAF0  48035610          add rdx,[rsi+0x10]
0000AAF4  8906              mov [rsi],eax
0000AAF6  448B3A            mov r15d,[rdx]
0000AAF9  4183FF0F          cmp r15d,byte +0xf
0000AAFD  0F8EA0060000      jng near 0xb1a3
0000AB03  4489F8            mov eax,r15d
0000AB06  BB01000000        mov ebx,0x1
0000AB0B  0F1F440000        nop dword [rax+rax+0x0]
0000AB10  C1F804            sar eax,byte 0x4
0000AB13  83C301            add ebx,byte +0x1
0000AB16  83F80F            cmp eax,byte +0xf
0000AB19  7FF5              jg 0xab10
0000AB1B  807D9200          cmp byte [rbp-0x6e],0x0
0000AB1F  740A              jz 0xab2b
0000AB21  807D9400          cmp byte [rbp-0x6c],0x0
0000AB25  0F85FE040000      jnz near 0xb029
0000AB2B  4139DD            cmp r13d,ebx
0000AB2E  0F8F20060000      jg near 0xb154
0000AB34  807D9400          cmp byte [rbp-0x6c],0x0
0000AB38  7550              jnz 0xab8a
0000AB3A  807D9200          cmp byte [rbp-0x6e],0x0
0000AB3E  744A              jz 0xab8a
0000AB40  44894594          mov [rbp-0x6c],r8d
0000AB44  E897E7FFFF        call 0x92e0
0000AB49  488D1400          lea rdx,[rax+rax]
0000AB4D  83C001            add eax,byte +0x1
0000AB50  81E2FEFF0100      and edx,0x1fffe
0000AB56  0FB7F8            movzx edi,ax
0000AB59  C6820000200030    mov byte [rdx+0x200000],0x30
0000AB60  E84BE7FFFF        call 0x92b0
0000AB65  E876E7FFFF        call 0x92e0
0000AB6A  488D1400          lea rdx,[rax+rax]
0000AB6E  83C001            add eax,byte +0x1
0000AB71  81E2FEFF0100      and edx,0x1fffe
0000AB77  0FB7F8            movzx edi,ax
0000AB7A  C6820000200058    mov byte [rdx+0x200000],0x58
0000AB81  E82AE7FFFF        call 0x92b0
0000AB86  448B4594          mov r8d,[rbp-0x6c]
0000AB8A  BA10000000        mov edx,0x10
0000AB8F  488D75A0          lea rsi,[rbp-0x60]
0000AB93  4489FF            mov edi,r15d
0000AB96  44894594          mov [rbp-0x6c],r8d
0000AB9A  E8F1060000        call 0xb290
0000AB9F  807D9300          cmp byte [rbp-0x6d],0x0
0000ABA3  448B4594          mov r8d,[rbp-0x6c]
0000ABA7  0F858E030000      jnz near 0xaf3b
0000ABAD  8B5DA0            mov ebx,[rbp-0x60]
0000ABB0  4C8D6DA4          lea r13,[rbp-0x5c]
0000ABB4  4589C7            mov r15d,r8d
0000ABB7  85DB              test ebx,ebx
0000ABB9  7538              jnz 0xabf3
0000ABBB  E960FBFFFF        jmp 0xa720
0000ABC0  E81BE7FFFF        call 0x92e0
0000ABC5  83EB20            sub ebx,byte +0x20
0000ABC8  4983C504          add r13,byte +0x4
0000ABCC  4183C401          add r12d,byte +0x1
0000ABD0  488D1400          lea rdx,[rax+rax]
0000ABD4  83C001            add eax,byte +0x1
0000ABD7  81E2FEFF0100      and edx,0x1fffe
0000ABDD  0FB7F8            movzx edi,ax
0000ABE0  889A00002000      mov [rdx+0x200000],bl
0000ABE6  E8C5E6FFFF        call 0x92b0
0000ABEB  418B5DFC          mov ebx,[r13-0x4]
0000ABEF  85DB              test ebx,ebx
0000ABF1  7420              jz 0xac13
0000ABF3  8D439F            lea eax,[rbx-0x61]
0000ABF6  83F819            cmp eax,byte +0x19
0000ABF9  76C5              jna 0xabc0
0000ABFB  0FBEFB            movsx edi,bl
0000ABFE  4983C504          add r13,byte +0x4
0000AC02  4183C401          add r12d,byte +0x1
0000AC06  E855FAFFFF        call 0xa660
0000AC0B  418B5DFC          mov ebx,[r13-0x4]
0000AC0F  85DB              test ebx,ebx
0000AC11  75E0              jnz 0xabf3
0000AC13  4589F8            mov r8d,r15d
0000AC16  E905FBFFFF        jmp 0xa720
0000AC1B  488B7598          mov rsi,[rbp-0x68]
0000AC1F  8B06              mov eax,[rsi]
0000AC21  83F82F            cmp eax,byte +0x2f
0000AC24  0F872A020000      ja near 0xae54
0000AC2A  89C2              mov edx,eax
0000AC2C  83C008            add eax,byte +0x8
0000AC2F  48035610          add rdx,[rsi+0x10]
0000AC33  8906              mov [rsi],eax
0000AC35  4C8B2A            mov r13,[rdx]
0000AC38  410FB64500        movzx eax,byte [r13+0x0]
0000AC3D  84C0              test al,al
0000AC3F  0F84DBFAFFFF      jz near 0xa720
0000AC45  4C89EB            mov rbx,r13
0000AC48  4589C7            mov r15d,r8d
0000AC4B  0F1F440000        nop dword [rax+rax+0x0]
0000AC50  0FBEF8            movsx edi,al
0000AC53  E808FAFFFF        call 0xa660
0000AC58  4889DA            mov rdx,rbx
0000AC5B  0FB64301          movzx eax,byte [rbx+0x1]
0000AC5F  4883C301          add rbx,byte +0x1
0000AC63  84C0              test al,al
0000AC65  75E9              jnz 0xac50
0000AC67  4183C401          add r12d,byte +0x1
0000AC6B  4589F8            mov r8d,r15d
0000AC6E  4529EC            sub r12d,r13d
0000AC71  4101D4            add r12d,edx
0000AC74  E9A7FAFFFF        jmp 0xa720
0000AC79  488B4598          mov rax,[rbp-0x68]
0000AC7D  8B00              mov eax,[rax]
0000AC7F  83F82F            cmp eax,byte +0x2f
0000AC82  0F87B7010000      ja near 0xae3f
0000AC88  488B7598          mov rsi,[rbp-0x68]
0000AC8C  89C2              mov edx,eax
0000AC8E  83C008            add eax,byte +0x8
0000AC91  8906              mov [rsi],eax
0000AC93  48035610          add rdx,[rsi+0x10]
0000AC97  8B02              mov eax,[rdx]
0000AC99  BA01000000        mov edx,0x1
0000AC9E  83F80F            cmp eax,byte +0xf
0000ACA1  7E10              jng 0xacb3
0000ACA3  0F1F440000        nop dword [rax+rax+0x0]
0000ACA8  C1F804            sar eax,byte 0x4
0000ACAB  83C201            add edx,byte +0x1
0000ACAE  83F80F            cmp eax,byte +0xf
0000ACB1  7FF5              jg 0xaca8
0000ACB3  4183C401          add r12d,byte +0x1
0000ACB7  4139D5            cmp r13d,edx
0000ACBA  0F8E60FAFFFF      jng near 0xa720
0000ACC0  0FB64592          movzx eax,byte [rbp-0x6e]
0000ACC4  4489EE            mov esi,r13d
0000ACC7  440FB67D93        movzx r15d,byte [rbp-0x6d]
0000ACCC  29D6              sub esi,edx
0000ACCE  01C0              add eax,eax
0000ACD0  29C6              sub esi,eax
0000ACD2  4429FE            sub esi,r15d
0000ACD5  89F3              mov ebx,esi
0000ACD7  0F8443FAFFFF      jz near 0xa720
0000ACDD  807D9401          cmp byte [rbp-0x6c],0x1
0000ACE1  44894594          mov [rbp-0x6c],r8d
0000ACE5  4189F5            mov r13d,esi
0000ACE8  4519FF            sbb r15d,r15d
0000ACEB  4183E7F0          and r15d,byte -0x10
0000ACEF  4183C730          add r15d,byte +0x30
0000ACF3  0F1F440000        nop dword [rax+rax+0x0]
0000ACF8  E8E3E5FFFF        call 0x92e0
0000ACFD  488D1400          lea rdx,[rax+rax]
0000AD01  83C001            add eax,byte +0x1
0000AD04  81E2FEFF0100      and edx,0x1fffe
0000AD0A  0FB7F8            movzx edi,ax
0000AD0D  4488BA00002000    mov [rdx+0x200000],r15b
0000AD14  E897E5FFFF        call 0x92b0
0000AD19  4183ED01          sub r13d,byte +0x1
0000AD1D  75D9              jnz 0xacf8
0000AD1F  448B4594          mov r8d,[rbp-0x6c]
0000AD23  4101DC            add r12d,ebx
0000AD26  E9F5F9FFFF        jmp 0xa720
0000AD2B  488B4598          mov rax,[rbp-0x68]
0000AD2F  8B00              mov eax,[rax]
0000AD31  83F82F            cmp eax,byte +0x2f
0000AD34  0F8744010000      ja near 0xae7e
0000AD3A  488B7598          mov rsi,[rbp-0x68]
0000AD3E  89C2              mov edx,eax
0000AD40  83C008            add eax,byte +0x8
0000AD43  8906              mov [rsi],eax
0000AD45  48035610          add rdx,[rsi+0x10]
0000AD49  448B3A            mov r15d,[rdx]
0000AD4C  4183FF0F          cmp r15d,byte +0xf
0000AD50  0F8E43040000      jng near 0xb199
0000AD56  4489F8            mov eax,r15d
0000AD59  BB01000000        mov ebx,0x1
0000AD5E  6690              xchg ax,ax
0000AD60  C1F804            sar eax,byte 0x4
0000AD63  83C301            add ebx,byte +0x1
0000AD66  83F80F            cmp eax,byte +0xf
0000AD69  7FF5              jg 0xad60
0000AD6B  4585ED            test r13d,r13d
0000AD6E  0F95C2            setnz dl
0000AD71  4139DD            cmp r13d,ebx
0000AD74  0F9FC0            setg al
0000AD77  21C2              and edx,eax
0000AD79  807D9200          cmp byte [rbp-0x6e],0x0
0000AD7D  740A              jz 0xad89
0000AD7F  807D9400          cmp byte [rbp-0x6c],0x0
0000AD83  0F85E0010000      jnz near 0xaf69
0000AD89  84D2              test dl,dl
0000AD8B  0F85A5030000      jnz near 0xb136
0000AD91  807D9400          cmp byte [rbp-0x6c],0x0
0000AD95  7550              jnz 0xade7
0000AD97  807D9200          cmp byte [rbp-0x6e],0x0
0000AD9B  744A              jz 0xade7
0000AD9D  44894594          mov [rbp-0x6c],r8d
0000ADA1  E83AE5FFFF        call 0x92e0
0000ADA6  488D1400          lea rdx,[rax+rax]
0000ADAA  83C001            add eax,byte +0x1
0000ADAD  81E2FEFF0100      and edx,0x1fffe
0000ADB3  0FB7F8            movzx edi,ax
0000ADB6  C6820000200030    mov byte [rdx+0x200000],0x30
0000ADBD  E8EEE4FFFF        call 0x92b0
0000ADC2  E819E5FFFF        call 0x92e0
0000ADC7  488D1400          lea rdx,[rax+rax]
0000ADCB  83C001            add eax,byte +0x1
0000ADCE  81E2FEFF0100      and edx,0x1fffe
0000ADD4  0FB7F8            movzx edi,ax
0000ADD7  C6820000200078    mov byte [rdx+0x200000],0x78
0000ADDE  E8CDE4FFFF        call 0x92b0
0000ADE3  448B4594          mov r8d,[rbp-0x6c]
0000ADE7  BA10000000        mov edx,0x10
0000ADEC  488D75A0          lea rsi,[rbp-0x60]
0000ADF0  4489FF            mov edi,r15d
0000ADF3  44894594          mov [rbp-0x6c],r8d
0000ADF7  E894040000        call 0xb290
0000ADFC  807D9300          cmp byte [rbp-0x6d],0x0
0000AE00  448B4594          mov r8d,[rbp-0x6c]
0000AE04  0F8503010000      jnz near 0xaf0d
0000AE0A  8B45A0            mov eax,[rbp-0x60]
0000AE0D  488D5DA4          lea rbx,[rbp-0x5c]
0000AE11  4589C5            mov r13d,r8d
0000AE14  85C0              test eax,eax
0000AE16  0F8404F9FFFF      jz near 0xa720
0000AE1C  0F1F4000          nop dword [rax+0x0]
0000AE20  0FBEF8            movsx edi,al
0000AE23  4883C304          add rbx,byte +0x4
0000AE27  4183C401          add r12d,byte +0x1
0000AE2B  E830F8FFFF        call 0xa660
0000AE30  8B43FC            mov eax,[rbx-0x4]
0000AE33  85C0              test eax,eax
0000AE35  75E9              jnz 0xae20
0000AE37  4589E8            mov r8d,r13d
0000AE3A  E9E1F8FFFF        jmp 0xa720
0000AE3F  488B7598          mov rsi,[rbp-0x68]
0000AE43  488B5608          mov rdx,[rsi+0x8]
0000AE47  488D4208          lea rax,[rdx+0x8]
0000AE4B  48894608          mov [rsi+0x8],rax
0000AE4F  E943FEFFFF        jmp 0xac97
0000AE54  488B7598          mov rsi,[rbp-0x68]
0000AE58  488B5608          mov rdx,[rsi+0x8]
0000AE5C  488D4208          lea rax,[rdx+0x8]
0000AE60  48894608          mov [rsi+0x8],rax
0000AE64  E9CCFDFFFF        jmp 0xac35
0000AE69  488B7598          mov rsi,[rbp-0x68]
0000AE6D  488B5608          mov rdx,[rsi+0x8]
0000AE71  488D4208          lea rax,[rdx+0x8]
0000AE75  48894608          mov [rsi+0x8],rax
0000AE79  E945FCFFFF        jmp 0xaac3
0000AE7E  488B7598          mov rsi,[rbp-0x68]
0000AE82  488B5608          mov rdx,[rsi+0x8]
0000AE86  488D4208          lea rax,[rdx+0x8]
0000AE8A  48894608          mov [rsi+0x8],rax
0000AE8E  E9B6FEFFFF        jmp 0xad49
0000AE93  488B7598          mov rsi,[rbp-0x68]
0000AE97  488B5608          mov rdx,[rsi+0x8]
0000AE9B  488D4208          lea rax,[rdx+0x8]
0000AE9F  48894608          mov [rsi+0x8],rax
0000AEA3  E94EFCFFFF        jmp 0xaaf6
0000AEA8  488B7598          mov rsi,[rbp-0x68]
0000AEAC  488B5608          mov rdx,[rsi+0x8]
0000AEB0  488D4208          lea rax,[rdx+0x8]
0000AEB4  48894608          mov [rsi+0x8],rax
0000AEB8  E915FBFFFF        jmp 0xa9d2
0000AEBD  488B7598          mov rsi,[rbp-0x68]
0000AEC1  4183C702          add r15d,byte +0x2
0000AEC5  4963C7            movsxd rax,r15d
0000AEC8  8B0E              mov ecx,[rsi]
0000AECA  4C01F0            add rax,r14
0000AECD  83F92F            cmp ecx,byte +0x2f
0000AED0  7626              jna 0xaef8
0000AED2  488B7598          mov rsi,[rbp-0x68]
0000AED6  0FB600            movzx eax,byte [rax]
0000AED9  4883460808        add qword [rsi+0x8],byte +0x8
0000AEDE  E9BFF8FFFF        jmp 0xa7a2
0000AEE3  488B7598          mov rsi,[rbp-0x68]
0000AEE7  488B5608          mov rdx,[rsi+0x8]
0000AEEB  488D4208          lea rax,[rdx+0x8]
0000AEEF  48894608          mov [rsi+0x8],rax
0000AEF3  E9A6FBFFFF        jmp 0xaa9e
0000AEF8  83C108            add ecx,byte +0x8
0000AEFB  0FB600            movzx eax,byte [rax]
0000AEFE  890E              mov [rsi],ecx
0000AF00  E99DF8FFFF        jmp 0xa7a2
0000AF05  4489FB            mov ebx,r15d
0000AF08  E9F6F9FFFF        jmp 0xa903
0000AF0D  E8CEE3FFFF        call 0x92e0
0000AF12  4183C401          add r12d,byte +0x1
0000AF16  488D1400          lea rdx,[rax+rax]
0000AF1A  83C001            add eax,byte +0x1
0000AF1D  81E2FEFF0100      and edx,0x1fffe
0000AF23  0FB7F8            movzx edi,ax
0000AF26  C682000020002B    mov byte [rdx+0x200000],0x2b
0000AF2D  E87EE3FFFF        call 0x92b0
0000AF32  448B4594          mov r8d,[rbp-0x6c]
0000AF36  E9CFFEFFFF        jmp 0xae0a
0000AF3B  E8A0E3FFFF        call 0x92e0
0000AF40  4183C401          add r12d,byte +0x1
0000AF44  488D1400          lea rdx,[rax+rax]
0000AF48  83C001            add eax,byte +0x1
0000AF4B  81E2FEFF0100      and edx,0x1fffe
0000AF51  0FB7F8            movzx edi,ax
0000AF54  C682000020002B    mov byte [rdx+0x200000],0x2b
0000AF5B  E850E3FFFF        call 0x92b0
0000AF60  448B4594          mov r8d,[rbp-0x6c]
0000AF64  E944FCFFFF        jmp 0xabad
0000AF69  44894584          mov [rbp-0x7c],r8d
0000AF6D  885588            mov [rbp-0x78],dl
0000AF70  E86BE3FFFF        call 0x92e0
0000AF75  488D3C00          lea rdi,[rax+rax]
0000AF79  83C001            add eax,byte +0x1
0000AF7C  81E7FEFF0100      and edi,0x1fffe
0000AF82  C6870000200030    mov byte [rdi+0x200000],0x30
0000AF89  0FB7F8            movzx edi,ax
0000AF8C  E81FE3FFFF        call 0x92b0
0000AF91  E84AE3FFFF        call 0x92e0
0000AF96  488D3C00          lea rdi,[rax+rax]
0000AF9A  83C001            add eax,byte +0x1
0000AF9D  81E7FEFF0100      and edi,0x1fffe
0000AFA3  C6870000200078    mov byte [rdi+0x200000],0x78
0000AFAA  0FB7F8            movzx edi,ax
0000AFAD  E8FEE2FFFF        call 0x92b0
0000AFB2  0FB65588          movzx edx,byte [rbp-0x78]
0000AFB6  448B4584          mov r8d,[rbp-0x7c]
0000AFBA  84D2              test dl,dl
0000AFBC  0F8425FEFFFF      jz near 0xade7
0000AFC2  4489E8            mov eax,r13d
0000AFC5  0FB65593          movzx edx,byte [rbp-0x6d]
0000AFC9  29D8              sub eax,ebx
0000AFCB  83E802            sub eax,byte +0x2
0000AFCE  29D0              sub eax,edx
0000AFD0  0F8411FEFFFF      jz near 0xade7
0000AFD6  807D9401          cmp byte [rbp-0x6c],0x1
0000AFDA  44894584          mov [rbp-0x7c],r8d
0000AFDE  89C3              mov ebx,eax
0000AFE0  19D2              sbb edx,edx
0000AFE2  44897D88          mov [rbp-0x78],r15d
0000AFE6  4189C7            mov r15d,eax
0000AFE9  83E2F0            and edx,byte -0x10
0000AFEC  448D6A30          lea r13d,[rdx+0x30]
0000AFF0  E8EBE2FFFF        call 0x92e0
0000AFF5  488D1400          lea rdx,[rax+rax]
0000AFF9  83C001            add eax,byte +0x1
0000AFFC  81E2FEFF0100      and edx,0x1fffe
0000B002  0FB7F8            movzx edi,ax
0000B005  4488AA00002000    mov [rdx+0x200000],r13b
0000B00C  E89FE2FFFF        call 0x92b0
0000B011  83EB01            sub ebx,byte +0x1
0000B014  75DA              jnz 0xaff0
0000B016  4489F8            mov eax,r15d
0000B019  448B4584          mov r8d,[rbp-0x7c]
0000B01D  448B7D88          mov r15d,[rbp-0x78]
0000B021  4101C4            add r12d,eax
0000B024  E968FDFFFF        jmp 0xad91
0000B029  44894588          mov [rbp-0x78],r8d
0000B02D  E8AEE2FFFF        call 0x92e0
0000B032  488D1400          lea rdx,[rax+rax]
0000B036  83C001            add eax,byte +0x1
0000B039  81E2FEFF0100      and edx,0x1fffe
0000B03F  0FB7F8            movzx edi,ax
0000B042  C6820000200030    mov byte [rdx+0x200000],0x30
0000B049  E862E2FFFF        call 0x92b0
0000B04E  E88DE2FFFF        call 0x92e0
0000B053  488D1400          lea rdx,[rax+rax]
0000B057  83C001            add eax,byte +0x1
0000B05A  81E2FEFF0100      and edx,0x1fffe
0000B060  0FB7F8            movzx edi,ax
0000B063  C6820000200058    mov byte [rdx+0x200000],0x58
0000B06A  E841E2FFFF        call 0x92b0
0000B06F  4139DD            cmp r13d,ebx
0000B072  448B4588          mov r8d,[rbp-0x78]
0000B076  0F8E0EFBFFFF      jng near 0xab8a
0000B07C  4489E8            mov eax,r13d
0000B07F  0FB65593          movzx edx,byte [rbp-0x6d]
0000B083  29D8              sub eax,ebx
0000B085  83E802            sub eax,byte +0x2
0000B088  29D0              sub eax,edx
0000B08A  0F84FAFAFFFF      jz near 0xab8a
0000B090  807D9401          cmp byte [rbp-0x6c],0x1
0000B094  44894584          mov [rbp-0x7c],r8d
0000B098  89C3              mov ebx,eax
0000B09A  19D2              sbb edx,edx
0000B09C  44897D88          mov [rbp-0x78],r15d
0000B0A0  4189C7            mov r15d,eax
0000B0A3  83E2F0            and edx,byte -0x10
0000B0A6  448D6A30          lea r13d,[rdx+0x30]
0000B0AA  660F1F440000      nop word [rax+rax+0x0]
0000B0B0  E82BE2FFFF        call 0x92e0
0000B0B5  488D1400          lea rdx,[rax+rax]
0000B0B9  83C001            add eax,byte +0x1
0000B0BC  81E2FEFF0100      and edx,0x1fffe
0000B0C2  0FB7F8            movzx edi,ax
0000B0C5  4488AA00002000    mov [rdx+0x200000],r13b
0000B0CC  E8DFE1FFFF        call 0x92b0
0000B0D1  83EB01            sub ebx,byte +0x1
0000B0D4  75DA              jnz 0xb0b0
0000B0D6  4489F8            mov eax,r15d
0000B0D9  448B4584          mov r8d,[rbp-0x7c]
0000B0DD  448B7D88          mov r15d,[rbp-0x78]
0000B0E1  4101C4            add r12d,eax
0000B0E4  E94BFAFFFF        jmp 0xab34
0000B0E9  83F82F            cmp eax,byte +0x2f
0000B0EC  0F8780000000      ja near 0xb172
0000B0F2  488B7598          mov rsi,[rbp-0x68]
0000B0F6  89C2              mov edx,eax
0000B0F8  83C008            add eax,byte +0x8
0000B0FB  8906              mov [rsi],eax
0000B0FD  48035610          add rdx,[rsi+0x10]
0000B101  488B02            mov rax,[rdx]
0000B104  448820            mov [rax],r12b
0000B107  4183C401          add r12d,byte +0x1
0000B10B  E910F6FFFF        jmp 0xa720
0000B110  83F82F            cmp eax,byte +0x2f
0000B113  7772              ja 0xb187
0000B115  488B7598          mov rsi,[rbp-0x68]
0000B119  89C2              mov edx,eax
0000B11B  83C008            add eax,byte +0x8
0000B11E  8906              mov [rsi],eax
0000B120  48035610          add rdx,[rsi+0x10]
0000B124  488B02            mov rax,[rdx]
0000B127  4963D4            movsxd rdx,r12d
0000B12A  4183C401          add r12d,byte +0x1
0000B12E  488910            mov [rax],rdx
0000B131  E9EAF5FFFF        jmp 0xa720
0000B136  0FB65592          movzx edx,byte [rbp-0x6e]
0000B13A  4489E8            mov eax,r13d
0000B13D  29D8              sub eax,ebx
0000B13F  01D2              add edx,edx
0000B141  29D0              sub eax,edx
0000B143  0FB65593          movzx edx,byte [rbp-0x6d]
0000B147  29D0              sub eax,edx
0000B149  0F8587FEFFFF      jnz near 0xafd6
0000B14F  E93DFCFFFF        jmp 0xad91
0000B154  0FB65592          movzx edx,byte [rbp-0x6e]
0000B158  4489E8            mov eax,r13d
0000B15B  29D8              sub eax,ebx
0000B15D  01D2              add edx,edx
0000B15F  29D0              sub eax,edx
0000B161  0FB65593          movzx edx,byte [rbp-0x6d]
0000B165  29D0              sub eax,edx
0000B167  0F8523FFFFFF      jnz near 0xb090
0000B16D  E9C2F9FFFF        jmp 0xab34
0000B172  488B7598          mov rsi,[rbp-0x68]
0000B176  488B5608          mov rdx,[rsi+0x8]
0000B17A  488D4208          lea rax,[rdx+0x8]
0000B17E  48894608          mov [rsi+0x8],rax
0000B182  E97AFFFFFF        jmp 0xb101
0000B187  488B7598          mov rsi,[rbp-0x68]
0000B18B  488B5608          mov rdx,[rsi+0x8]
0000B18F  488D4208          lea rax,[rdx+0x8]
0000B193  48894608          mov [rsi+0x8],rax
0000B197  EB8B              jmp short 0xb124
0000B199  BB01000000        mov ebx,0x1
0000B19E  E9C8FBFFFF        jmp 0xad6b
0000B1A3  BB01000000        mov ebx,0x1
0000B1A8  E96EF9FFFF        jmp 0xab1b
0000B1AD  0F1F00            nop dword [rax]
0000B1B0  55                push rbp
0000B1B1  4889E5            mov rbp,rsp
0000B1B4  4881ECD0000000    sub rsp,0xd0
0000B1BB  4889B558FFFFFF    mov [rbp-0xa8],rsi
0000B1C2  48899560FFFFFF    mov [rbp-0xa0],rdx
0000B1C9  48898D68FFFFFF    mov [rbp-0x98],rcx
0000B1D0  4C898570FFFFFF    mov [rbp-0x90],r8
0000B1D7  4C898D78FFFFFF    mov [rbp-0x88],r9
0000B1DE  84C0              test al,al
0000B1E0  7420              jz 0xb202
0000B1E2  0F294580          movaps oword [rbp-0x80],xmm0
0000B1E6  0F294D90          movaps oword [rbp-0x70],xmm1
0000B1EA  0F2955A0          movaps oword [rbp-0x60],xmm2
0000B1EE  0F295DB0          movaps oword [rbp-0x50],xmm3
0000B1F2  0F2965C0          movaps oword [rbp-0x40],xmm4
0000B1F6  0F296DD0          movaps oword [rbp-0x30],xmm5
0000B1FA  0F2975E0          movaps oword [rbp-0x20],xmm6
0000B1FE  0F297DF0          movaps oword [rbp-0x10],xmm7
0000B202  488D4510          lea rax,[rbp+0x10]
0000B206  488DB538FFFFFF    lea rsi,[rbp-0xc8]
0000B20D  C78538FFFFFF0800  mov dword [rbp-0xc8],0x8
         -0000
0000B217  48898540FFFFFF    mov [rbp-0xc0],rax
0000B21E  488D8550FFFFFF    lea rax,[rbp-0xb0]
0000B225  C7853CFFFFFF3000  mov dword [rbp-0xc4],0x30
         -0000
0000B22F  48898548FFFFFF    mov [rbp-0xb8],rax
0000B236  E8A5F4FFFF        call 0xa6e0
0000B23B  C9                leave
0000B23C  C3                ret
0000B23D  0F1F00            nop dword [rax]
0000B240  55                push rbp
0000B241  4889E5            mov rbp,rsp
0000B244  4154              push r12
0000B246  4989FC            mov r12,rdi
0000B249  53                push rbx
0000B24A  0FBE3F            movsx edi,byte [rdi]
0000B24D  4084FF            test dil,dil
0000B250  742E              jz 0xb280
0000B252  BB01000000        mov ebx,0x1
0000B257  660F1F8400000000  nop word [rax+rax+0x0]
         -00
0000B260  E8FBF3FFFF        call 0xa660
0000B265  4889D8            mov rax,rbx
0000B268  4883C301          add rbx,byte +0x1
0000B26C  410FBE7C1CFF      movsx edi,byte [r12+rbx-0x1]
0000B272  4084FF            test dil,dil
0000B275  75E9              jnz 0xb260
0000B277  5B                pop rbx
0000B278  415C              pop r12
0000B27A  5D                pop rbp
0000B27B  C3                ret
0000B27C  0F1F4000          nop dword [rax+0x0]
0000B280  5B                pop rbx
0000B281  31C0              xor eax,eax
0000B283  415C              pop r12
0000B285  5D                pop rbp
0000B286  C3                ret
0000B287  660F1F8400000000  nop word [rax+rax+0x0]
         -00
0000B290  55                push rbp
0000B291  89F8              mov eax,edi
0000B293  4889E5            mov rbp,rsp
0000B296  53                push rbx
0000B297  4889F3            mov rbx,rsi
0000B29A  4883EC08          sub rsp,byte +0x8
0000B29E  85FF              test edi,edi
0000B2A0  747E              jz 0xb320
0000B2A2  83FA0A            cmp edx,byte +0xa
0000B2A5  89D7              mov edi,edx
0000B2A7  89C2              mov edx,eax
0000B2A9  89C6              mov esi,eax
0000B2AB  0F94C1            setz cl
0000B2AE  C1EA1F            shr edx,byte 0x1f
0000B2B1  F7DE              neg esi
0000B2B3  20D1              and cl,dl
0000B2B5  0F45C6            cmovnz eax,esi
0000B2B8  4189CA            mov r10d,ecx
0000B2BB  4889DE            mov rsi,rbx
0000B2BE  4531C0            xor r8d,r8d
0000B2C1  EB08              jmp short 0xb2cb
0000B2C3  0F1F440000        nop dword [rax+rax+0x0]
0000B2C8  4189D0            mov r8d,edx
0000B2CB  99                cdq
0000B2CC  F7FF              idiv edi
0000B2CE  83FA0A            cmp edx,byte +0xa
0000B2D1  448D4A57          lea r9d,[rdx+0x57]
0000B2D5  8D4A30            lea ecx,[rdx+0x30]
0000B2D8  410F4DC9          cmovnl ecx,r9d
0000B2DC  418D5001          lea edx,[r8+0x1]
0000B2E0  4883C604          add rsi,byte +0x4
0000B2E4  894EFC            mov [rsi-0x4],ecx
0000B2E7  85C0              test eax,eax
0000B2E9  75DD              jnz 0xb2c8
0000B2EB  4584D2            test r10b,r10b
0000B2EE  7520              jnz 0xb310
0000B2F0  4863C2            movsxd rax,edx
0000B2F3  4889DF            mov rdi,rbx
0000B2F6  89D6              mov esi,edx
0000B2F8  C7048300000000    mov dword [rbx+rax*4],0x0
0000B2FF  E8CC000000        call 0xb3d0
0000B304  4889D8            mov rax,rbx
0000B307  488B5DF8          mov rbx,[rbp-0x8]
0000B30B  C9                leave
0000B30C  C3                ret
0000B30D  0F1F00            nop dword [rax]
0000B310  4863D2            movsxd rdx,edx
0000B313  C704932D000000    mov dword [rbx+rdx*4],0x2d
0000B31A  418D5002          lea edx,[r8+0x2]
0000B31E  EBD0              jmp short 0xb2f0
0000B320  488B0559310000    mov rax,[rel 0xe480]
0000B327  488906            mov [rsi],rax
0000B32A  4889D8            mov rax,rbx
0000B32D  488B5DF8          mov rbx,[rbp-0x8]
0000B331  C9                leave
0000B332  C3                ret
0000B333  66662E0F1F840000  nop word [cs:rax+rax+0x0]
         -000000
0000B33E  6690              xchg ax,ax
0000B340  55                push rbp
0000B341  4889E5            mov rbp,rsp
0000B344  4155              push r13
0000B346  4154              push r12
0000B348  4989FC            mov r12,rdi
0000B34B  53                push rbx
0000B34C  4883EC08          sub rsp,byte +0x8
0000B350  EB0A              jmp short 0xb35c
0000B352  660F1F440000      nop word [rax+rax+0x0]
0000B358  4983C401          add r12,byte +0x1
0000B35C  410FBE3C24        movsx edi,byte [r12]
0000B361  E8BAF2FFFF        call 0xa620
0000B366  89C3              mov ebx,eax
0000B368  85C0              test eax,eax
0000B36A  75EC              jnz 0xb358
0000B36C  410FB60424        movzx eax,byte [r12]
0000B371  4531ED            xor r13d,r13d
0000B374  3C2B              cmp al,0x2b
0000B376  740A              jz 0xb382
0000B378  3C2D              cmp al,0x2d
0000B37A  7527              jnz 0xb3a3
0000B37C  41BD01000000      mov r13d,0x1
0000B382  4983C401          add r12,byte +0x1
0000B386  EB1B              jmp short 0xb3a3
0000B388  0F1F840000000000  nop dword [rax+rax+0x0]
0000B390  410FBE0424        movsx eax,byte [r12]
0000B395  8D1C9B            lea ebx,[rbx+rbx*4]
0000B398  4983C401          add r12,byte +0x1
0000B39C  01DB              add ebx,ebx
0000B39E  83E830            sub eax,byte +0x30
0000B3A1  29C3              sub ebx,eax
0000B3A3  410FBE3C24        movsx edi,byte [r12]
0000B3A8  E853F2FFFF        call 0xa600
0000B3AD  84C0              test al,al
0000B3AF  75DF              jnz 0xb390
0000B3B1  89D8              mov eax,ebx
0000B3B3  F7D8              neg eax
0000B3B5  4585ED            test r13d,r13d
0000B3B8  0F44D8            cmovz ebx,eax
0000B3BB  4883C408          add rsp,byte +0x8
0000B3BF  89D8              mov eax,ebx
0000B3C1  5B                pop rbx
0000B3C2  415C              pop r12
0000B3C4  415D              pop r13
0000B3C6  5D                pop rbp
0000B3C7  C3                ret
0000B3C8  0F1F840000000000  nop dword [rax+rax+0x0]
0000B3D0  83EE01            sub esi,byte +0x1
0000B3D3  85F6              test esi,esi
0000B3D5  7E21              jng 0xb3f8
0000B3D7  4863F6            movsxd rsi,esi
0000B3DA  31C0              xor eax,eax
0000B3DC  0F1F4000          nop dword [rax+0x0]
0000B3E0  8B1487            mov edx,[rdi+rax*4]
0000B3E3  8B0CB7            mov ecx,[rdi+rsi*4]
0000B3E6  890C87            mov [rdi+rax*4],ecx
0000B3E9  4883C001          add rax,byte +0x1
0000B3ED  8914B7            mov [rdi+rsi*4],edx
0000B3F0  4883EE01          sub rsi,byte +0x1
0000B3F4  39C6              cmp esi,eax
0000B3F6  7FE8              jg 0xb3e0
0000B3F8  C3                ret
0000B3F9  0F1F8000000000    nop dword [rax+0x0]
0000B400  8B0F              mov ecx,[rdi]
0000B402  31C0              xor eax,eax
0000B404  85C9              test ecx,ecx
0000B406  7418              jz 0xb420
0000B408  0F1F840000000000  nop dword [rax+rax+0x0]
0000B410  4883C001          add rax,byte +0x1
0000B414  8B1487            mov edx,[rdi+rax*4]
0000B417  85D2              test edx,edx
0000B419  75F5              jnz 0xb410
0000B41B  C3                ret
0000B41C  0F1F4000          nop dword [rax+0x0]
0000B420  C3                ret
0000B421  66662E0F1F840000  nop word [cs:rax+rax+0x0]
         -000000
0000B42C  0F1F4000          nop dword [rax+0x0]
0000B430  0FB617            movzx edx,byte [rdi]
0000B433  0FB60E            movzx ecx,byte [rsi]
0000B436  B801000000        mov eax,0x1
0000B43B  38D1              cmp cl,dl
0000B43D  741A              jz 0xb459
0000B43F  EB27              jmp short 0xb468
0000B441  0F1F8000000000    nop dword [rax+0x0]
0000B448  0FB61407          movzx edx,byte [rdi+rax]
0000B44C  4883C001          add rax,byte +0x1
0000B450  0FB64C06FF        movzx ecx,byte [rsi+rax-0x1]
0000B455  38CA              cmp dl,cl
0000B457  750F              jnz 0xb468
0000B459  84D2              test dl,dl
0000B45B  75EB              jnz 0xb448
0000B45D  31C0              xor eax,eax
0000B45F  29C8              sub eax,ecx
0000B461  C3                ret
0000B462  660F1F440000      nop word [rax+rax+0x0]
0000B468  0FB6C2            movzx eax,dl
0000B46B  29C8              sub eax,ecx
0000B46D  C3                ret
0000B46E  6690              xchg ax,ax
0000B470  488305A062000001  add qword [rel 0x11718],byte +0x1
0000B478  C3                ret
0000B479  0F1F8000000000    nop dword [rax+0x0]
0000B480  488D04BF          lea rax,[rdi+rdi*4]
0000B484  488D0480          lea rax,[rax+rax*4]
0000B488  48C1E002          shl rax,byte 0x2
0000B48C  0F1F4000          nop dword [rax+0x0]
0000B490  4885C0            test rax,rax
0000B493  75FB              jnz 0xb490
0000B495  C3                ret
0000B496  662E0F1F84000000  nop word [cs:rax+rax+0x0]
         -0000
0000B4A0  488B0571620000    mov rax,[rel 0x11718]
0000B4A7  4801C7            add rdi,rax
0000B4AA  660F1F440000      nop word [rax+rax+0x0]
0000B4B0  4839F8            cmp rax,rdi
0000B4B3  72FB              jc 0xb4b0
0000B4B5  31C0              xor eax,eax
0000B4B7  C3                ret
0000B4B8  662E0F1F84000000  nop word [cs:rax+rax+0x0]
         -0000
0000B4C2  662E0F1F84000000  nop word [cs:rax+rax+0x0]
         -0000
0000B4CC  662E0F1F84000000  nop word [cs:rax+rax+0x0]
         -0000
0000B4D6  662E0F1F84000000  nop word [cs:rax+rax+0x0]
         -0000
0000B4E0  662E0F1F84000000  nop word [cs:rax+rax+0x0]
         -0000
0000B4EA  662E0F1F84000000  nop word [cs:rax+rax+0x0]
         -0000
0000B4F4  662E0F1F84000000  nop word [cs:rax+rax+0x0]
         -0000
0000B4FE  662E0F1F84000000  nop word [cs:rax+rax+0x0]
         -0000
0000B508  662E0F1F84000000  nop word [cs:rax+rax+0x0]
         -0000
0000B512  662E0F1F84000000  nop word [cs:rax+rax+0x0]
         -0000
0000B51C  662E0F1F84000000  nop word [cs:rax+rax+0x0]
         -0000
0000B526  662E0F1F84000000  nop word [cs:rax+rax+0x0]
         -0000
0000B530  662E0F1F84000000  nop word [cs:rax+rax+0x0]
         -0000
0000B53A  662E0F1F84000000  nop word [cs:rax+rax+0x0]
         -0000
0000B544  662E0F1F84000000  nop word [cs:rax+rax+0x0]
         -0000
0000B54E  662E0F1F84000000  nop word [cs:rax+rax+0x0]
         -0000
0000B558  662E0F1F84000000  nop word [cs:rax+rax+0x0]
         -0000
0000B562  662E0F1F84000000  nop word [cs:rax+rax+0x0]
         -0000
0000B56C  662E0F1F84000000  nop word [cs:rax+rax+0x0]
         -0000
0000B576  662E0F1F84000000  nop word [cs:rax+rax+0x0]
         -0000
0000B580  662E0F1F84000000  nop word [cs:rax+rax+0x0]
         -0000
0000B58A  662E0F1F84000000  nop word [cs:rax+rax+0x0]
         -0000
0000B594  662E0F1F84000000  nop word [cs:rax+rax+0x0]
         -0000
0000B59E  662E0F1F84000000  nop word [cs:rax+rax+0x0]
         -0000
0000B5A8  662E0F1F84000000  nop word [cs:rax+rax+0x0]
         -0000
0000B5B2  662E0F1F84000000  nop word [cs:rax+rax+0x0]
         -0000
0000B5BC  662E0F1F84000000  nop word [cs:rax+rax+0x0]
         -0000
0000B5C6  662E0F1F84000000  nop word [cs:rax+rax+0x0]
         -0000
0000B5D0  662E0F1F84000000  nop word [cs:rax+rax+0x0]
         -0000
0000B5DA  662E0F1F84000000  nop word [cs:rax+rax+0x0]
         -0000
0000B5E4  662E0F1F84000000  nop word [cs:rax+rax+0x0]
         -0000
0000B5EE  662E0F1F84000000  nop word [cs:rax+rax+0x0]
         -0000
0000B5F8  662E0F1F84000000  nop word [cs:rax+rax+0x0]
         -0000
0000B602  662E0F1F84000000  nop word [cs:rax+rax+0x0]
         -0000
0000B60C  662E0F1F84000000  nop word [cs:rax+rax+0x0]
         -0000
0000B616  662E0F1F84000000  nop word [cs:rax+rax+0x0]
         -0000
0000B620  662E0F1F84000000  nop word [cs:rax+rax+0x0]
         -0000
0000B62A  662E0F1F84000000  nop word [cs:rax+rax+0x0]
         -0000
0000B634  662E0F1F84000000  nop word [cs:rax+rax+0x0]
         -0000
0000B63E  662E0F1F84000000  nop word [cs:rax+rax+0x0]
         -0000
0000B648  662E0F1F84000000  nop word [cs:rax+rax+0x0]
         -0000
0000B652  662E0F1F84000000  nop word [cs:rax+rax+0x0]
         -0000
0000B65C  662E0F1F84000000  nop word [cs:rax+rax+0x0]
         -0000
0000B666  662E0F1F84000000  nop word [cs:rax+rax+0x0]
         -0000
0000B670  662E0F1F84000000  nop word [cs:rax+rax+0x0]
         -0000
0000B67A  662E0F1F84000000  nop word [cs:rax+rax+0x0]
         -0000
0000B684  662E0F1F84000000  nop word [cs:rax+rax+0x0]
         -0000
0000B68E  662E0F1F84000000  nop word [cs:rax+rax+0x0]
         -0000
0000B698  662E0F1F84000000  nop word [cs:rax+rax+0x0]
         -0000
0000B6A2  662E0F1F84000000  nop word [cs:rax+rax+0x0]
         -0000
0000B6AC  662E0F1F84000000  nop word [cs:rax+rax+0x0]
         -0000
0000B6B6  662E0F1F84000000  nop word [cs:rax+rax+0x0]
         -0000
0000B6C0  662E0F1F84000000  nop word [cs:rax+rax+0x0]
         -0000
0000B6CA  662E0F1F84000000  nop word [cs:rax+rax+0x0]
         -0000
0000B6D4  662E0F1F84000000  nop word [cs:rax+rax+0x0]
         -0000
0000B6DE  662E0F1F84000000  nop word [cs:rax+rax+0x0]
         -0000
0000B6E8  662E0F1F84000000  nop word [cs:rax+rax+0x0]
         -0000
0000B6F2  662E0F1F84000000  nop word [cs:rax+rax+0x0]
         -0000
0000B6FC  662E0F1F84000000  nop word [cs:rax+rax+0x0]
         -0000
0000B706  662E0F1F84000000  nop word [cs:rax+rax+0x0]
         -0000
0000B710  662E0F1F84000000  nop word [cs:rax+rax+0x0]
         -0000
0000B71A  662E0F1F84000000  nop word [cs:rax+rax+0x0]
         -0000
0000B724  662E0F1F84000000  nop word [cs:rax+rax+0x0]
         -0000
0000B72E  662E0F1F84000000  nop word [cs:rax+rax+0x0]
         -0000
0000B738  662E0F1F84000000  nop word [cs:rax+rax+0x0]
         -0000
0000B742  662E0F1F84000000  nop word [cs:rax+rax+0x0]
         -0000
0000B74C  662E0F1F84000000  nop word [cs:rax+rax+0x0]
         -0000
0000B756  662E0F1F84000000  nop word [cs:rax+rax+0x0]
         -0000
0000B760  662E0F1F84000000  nop word [cs:rax+rax+0x0]
         -0000
0000B76A  662E0F1F84000000  nop word [cs:rax+rax+0x0]
         -0000
0000B774  662E0F1F84000000  nop word [cs:rax+rax+0x0]
         -0000
0000B77E  662E0F1F84000000  nop word [cs:rax+rax+0x0]
         -0000
0000B788  662E0F1F84000000  nop word [cs:rax+rax+0x0]
         -0000
0000B792  662E0F1F84000000  nop word [cs:rax+rax+0x0]
         -0000
0000B79C  662E0F1F84000000  nop word [cs:rax+rax+0x0]
         -0000
0000B7A6  662E0F1F84000000  nop word [cs:rax+rax+0x0]
         -0000
0000B7B0  662E0F1F84000000  nop word [cs:rax+rax+0x0]
         -0000
0000B7BA  662E0F1F84000000  nop word [cs:rax+rax+0x0]
         -0000
0000B7C4  662E0F1F84000000  nop word [cs:rax+rax+0x0]
         -0000
0000B7CE  662E0F1F84000000  nop word [cs:rax+rax+0x0]
         -0000
0000B7D8  662E0F1F84000000  nop word [cs:rax+rax+0x0]
         -0000
0000B7E2  662E0F1F84000000  nop word [cs:rax+rax+0x0]
         -0000
0000B7EC  662E0F1F84000000  nop word [cs:rax+rax+0x0]
         -0000
0000B7F6  662E0F1F84000000  nop word [cs:rax+rax+0x0]
         -0000
0000B800  662E0F1F84000000  nop word [cs:rax+rax+0x0]
         -0000
0000B80A  662E0F1F84000000  nop word [cs:rax+rax+0x0]
         -0000
0000B814  662E0F1F84000000  nop word [cs:rax+rax+0x0]
         -0000
0000B81E  662E0F1F84000000  nop word [cs:rax+rax+0x0]
         -0000
0000B828  662E0F1F84000000  nop word [cs:rax+rax+0x0]
         -0000
0000B832  662E0F1F84000000  nop word [cs:rax+rax+0x0]
         -0000
0000B83C  662E0F1F84000000  nop word [cs:rax+rax+0x0]
         -0000
0000B846  662E0F1F84000000  nop word [cs:rax+rax+0x0]
         -0000
0000B850  662E0F1F84000000  nop word [cs:rax+rax+0x0]
         -0000
0000B85A  662E0F1F84000000  nop word [cs:rax+rax+0x0]
         -0000
0000B864  662E0F1F84000000  nop word [cs:rax+rax+0x0]
         -0000
0000B86E  662E0F1F84000000  nop word [cs:rax+rax+0x0]
         -0000
0000B878  662E0F1F84000000  nop word [cs:rax+rax+0x0]
         -0000
0000B882  662E0F1F84000000  nop word [cs:rax+rax+0x0]
         -0000
0000B88C  662E0F1F84000000  nop word [cs:rax+rax+0x0]
         -0000
0000B896  662E0F1F84000000  nop word [cs:rax+rax+0x0]
         -0000
0000B8A0  662E0F1F84000000  nop word [cs:rax+rax+0x0]
         -0000
0000B8AA  662E0F1F84000000  nop word [cs:rax+rax+0x0]
         -0000
0000B8B4  662E0F1F84000000  nop word [cs:rax+rax+0x0]
         -0000
0000B8BE  662E0F1F84000000  nop word [cs:rax+rax+0x0]
         -0000
0000B8C8  662E0F1F84000000  nop word [cs:rax+rax+0x0]
         -0000
0000B8D2  662E0F1F84000000  nop word [cs:rax+rax+0x0]
         -0000
0000B8DC  662E0F1F84000000  nop word [cs:rax+rax+0x0]
         -0000
0000B8E6  662E0F1F84000000  nop word [cs:rax+rax+0x0]
         -0000
0000B8F0  662E0F1F84000000  nop word [cs:rax+rax+0x0]
         -0000
0000B8FA  662E0F1F84000000  nop word [cs:rax+rax+0x0]
         -0000
0000B904  662E0F1F84000000  nop word [cs:rax+rax+0x0]
         -0000
0000B90E  662E0F1F84000000  nop word [cs:rax+rax+0x0]
         -0000
0000B918  662E0F1F84000000  nop word [cs:rax+rax+0x0]
         -0000
0000B922  662E0F1F84000000  nop word [cs:rax+rax+0x0]
         -0000
0000B92C  662E0F1F84000000  nop word [cs:rax+rax+0x0]
         -0000
0000B936  662E0F1F84000000  nop word [cs:rax+rax+0x0]
         -0000
0000B940  662E0F1F84000000  nop word [cs:rax+rax+0x0]
         -0000
0000B94A  662E0F1F84000000  nop word [cs:rax+rax+0x0]
         -0000
0000B954  662E0F1F84000000  nop word [cs:rax+rax+0x0]
         -0000
0000B95E  662E0F1F84000000  nop word [cs:rax+rax+0x0]
         -0000
0000B968  662E0F1F84000000  nop word [cs:rax+rax+0x0]
         -0000
0000B972  662E0F1F84000000  nop word [cs:rax+rax+0x0]
         -0000
0000B97C  662E0F1F84000000  nop word [cs:rax+rax+0x0]
         -0000
0000B986  662E0F1F84000000  nop word [cs:rax+rax+0x0]
         -0000
0000B990  662E0F1F84000000  nop word [cs:rax+rax+0x0]
         -0000
0000B99A  662E0F1F84000000  nop word [cs:rax+rax+0x0]
         -0000
0000B9A4  662E0F1F84000000  nop word [cs:rax+rax+0x0]
         -0000
0000B9AE  662E0F1F84000000  nop word [cs:rax+rax+0x0]
         -0000
0000B9B8  662E0F1F84000000  nop word [cs:rax+rax+0x0]
         -0000
0000B9C2  662E0F1F84000000  nop word [cs:rax+rax+0x0]
         -0000
0000B9CC  662E0F1F84000000  nop word [cs:rax+rax+0x0]
         -0000
0000B9D6  662E0F1F84000000  nop word [cs:rax+rax+0x0]
         -0000
0000B9E0  662E0F1F84000000  nop word [cs:rax+rax+0x0]
         -0000
0000B9EA  662E0F1F84000000  nop word [cs:rax+rax+0x0]
         -0000
0000B9F4  662E0F1F84000000  nop word [cs:rax+rax+0x0]
         -0000
0000B9FE  662E0F1F84000000  nop word [cs:rax+rax+0x0]
         -0000
0000BA08  662E0F1F84000000  nop word [cs:rax+rax+0x0]
         -0000
0000BA12  662E0F1F84000000  nop word [cs:rax+rax+0x0]
         -0000
0000BA1C  662E0F1F84000000  nop word [cs:rax+rax+0x0]
         -0000
0000BA26  662E0F1F84000000  nop word [cs:rax+rax+0x0]
         -0000
0000BA30  662E0F1F84000000  nop word [cs:rax+rax+0x0]
         -0000
0000BA3A  662E0F1F84000000  nop word [cs:rax+rax+0x0]
         -0000
0000BA44  662E0F1F84000000  nop word [cs:rax+rax+0x0]
         -0000
0000BA4E  662E0F1F84000000  nop word [cs:rax+rax+0x0]
         -0000
0000BA58  662E0F1F84000000  nop word [cs:rax+rax+0x0]
         -0000
0000BA62  662E0F1F84000000  nop word [cs:rax+rax+0x0]
         -0000
0000BA6C  662E0F1F84000000  nop word [cs:rax+rax+0x0]
         -0000
0000BA76  662E0F1F84000000  nop word [cs:rax+rax+0x0]
         -0000
0000BA80  662E0F1F84000000  nop word [cs:rax+rax+0x0]
         -0000
0000BA8A  662E0F1F84000000  nop word [cs:rax+rax+0x0]
         -0000
0000BA94  662E0F1F84000000  nop word [cs:rax+rax+0x0]
         -0000
0000BA9E  662E0F1F84000000  nop word [cs:rax+rax+0x0]
         -0000
0000BAA8  662E0F1F84000000  nop word [cs:rax+rax+0x0]
         -0000
0000BAB2  662E0F1F84000000  nop word [cs:rax+rax+0x0]
         -0000
0000BABC  662E0F1F84000000  nop word [cs:rax+rax+0x0]
         -0000
0000BAC6  662E0F1F84000000  nop word [cs:rax+rax+0x0]
         -0000
0000BAD0  662E0F1F84000000  nop word [cs:rax+rax+0x0]
         -0000
0000BADA  662E0F1F84000000  nop word [cs:rax+rax+0x0]
         -0000
0000BAE4  662E0F1F84000000  nop word [cs:rax+rax+0x0]
         -0000
0000BAEE  662E0F1F84000000  nop word [cs:rax+rax+0x0]
         -0000
0000BAF8  662E0F1F84000000  nop word [cs:rax+rax+0x0]
         -0000
0000BB02  662E0F1F84000000  nop word [cs:rax+rax+0x0]
         -0000
0000BB0C  662E0F1F84000000  nop word [cs:rax+rax+0x0]
         -0000
0000BB16  662E0F1F84000000  nop word [cs:rax+rax+0x0]
         -0000
0000BB20  662E0F1F84000000  nop word [cs:rax+rax+0x0]
         -0000
0000BB2A  662E0F1F84000000  nop word [cs:rax+rax+0x0]
         -0000
0000BB34  662E0F1F84000000  nop word [cs:rax+rax+0x0]
         -0000
0000BB3E  662E0F1F84000000  nop word [cs:rax+rax+0x0]
         -0000
0000BB48  662E0F1F84000000  nop word [cs:rax+rax+0x0]
         -0000
0000BB52  662E0F1F84000000  nop word [cs:rax+rax+0x0]
         -0000
0000BB5C  662E0F1F84000000  nop word [cs:rax+rax+0x0]
         -0000
0000BB66  662E0F1F84000000  nop word [cs:rax+rax+0x0]
         -0000
0000BB70  662E0F1F84000000  nop word [cs:rax+rax+0x0]
         -0000
0000BB7A  662E0F1F84000000  nop word [cs:rax+rax+0x0]
         -0000
0000BB84  662E0F1F84000000  nop word [cs:rax+rax+0x0]
         -0000
0000BB8E  662E0F1F84000000  nop word [cs:rax+rax+0x0]
         -0000
0000BB98  662E0F1F84000000  nop word [cs:rax+rax+0x0]
         -0000
0000BBA2  662E0F1F84000000  nop word [cs:rax+rax+0x0]
         -0000
0000BBAC  662E0F1F84000000  nop word [cs:rax+rax+0x0]
         -0000
0000BBB6  662E0F1F84000000  nop word [cs:rax+rax+0x0]
         -0000
0000BBC0  662E0F1F84000000  nop word [cs:rax+rax+0x0]
         -0000
0000BBCA  662E0F1F84000000  nop word [cs:rax+rax+0x0]
         -0000
0000BBD4  662E0F1F84000000  nop word [cs:rax+rax+0x0]
         -0000
0000BBDE  662E0F1F84000000  nop word [cs:rax+rax+0x0]
         -0000
0000BBE8  662E0F1F84000000  nop word [cs:rax+rax+0x0]
         -0000
0000BBF2  662E0F1F84000000  nop word [cs:rax+rax+0x0]
         -0000
0000BBFC  662E0F1F84000000  nop word [cs:rax+rax+0x0]
         -0000
0000BC06  662E0F1F84000000  nop word [cs:rax+rax+0x0]
         -0000
0000BC10  662E0F1F84000000  nop word [cs:rax+rax+0x0]
         -0000
0000BC1A  662E0F1F84000000  nop word [cs:rax+rax+0x0]
         -0000
0000BC24  662E0F1F84000000  nop word [cs:rax+rax+0x0]
         -0000
0000BC2E  662E0F1F84000000  nop word [cs:rax+rax+0x0]
         -0000
0000BC38  662E0F1F84000000  nop word [cs:rax+rax+0x0]
         -0000
0000BC42  662E0F1F84000000  nop word [cs:rax+rax+0x0]
         -0000
0000BC4C  662E0F1F84000000  nop word [cs:rax+rax+0x0]
         -0000
0000BC56  662E0F1F84000000  nop word [cs:rax+rax+0x0]
         -0000
0000BC60  662E0F1F84000000  nop word [cs:rax+rax+0x0]
         -0000
0000BC6A  662E0F1F84000000  nop word [cs:rax+rax+0x0]
         -0000
0000BC74  662E0F1F84000000  nop word [cs:rax+rax+0x0]
         -0000
0000BC7E  662E0F1F84000000  nop word [cs:rax+rax+0x0]
         -0000
0000BC88  662E0F1F84000000  nop word [cs:rax+rax+0x0]
         -0000
0000BC92  662E0F1F84000000  nop word [cs:rax+rax+0x0]
         -0000
0000BC9C  662E0F1F84000000  nop word [cs:rax+rax+0x0]
         -0000
0000BCA6  662E0F1F84000000  nop word [cs:rax+rax+0x0]
         -0000
0000BCB0  662E0F1F84000000  nop word [cs:rax+rax+0x0]
         -0000
0000BCBA  662E0F1F84000000  nop word [cs:rax+rax+0x0]
         -0000
0000BCC4  662E0F1F84000000  nop word [cs:rax+rax+0x0]
         -0000
0000BCCE  662E0F1F84000000  nop word [cs:rax+rax+0x0]
         -0000
0000BCD8  662E0F1F84000000  nop word [cs:rax+rax+0x0]
         -0000
0000BCE2  662E0F1F84000000  nop word [cs:rax+rax+0x0]
         -0000
0000BCEC  662E0F1F84000000  nop word [cs:rax+rax+0x0]
         -0000
0000BCF6  662E0F1F84000000  nop word [cs:rax+rax+0x0]
         -0000
0000BD00  662E0F1F84000000  nop word [cs:rax+rax+0x0]
         -0000
0000BD0A  662E0F1F84000000  nop word [cs:rax+rax+0x0]
         -0000
0000BD14  662E0F1F84000000  nop word [cs:rax+rax+0x0]
         -0000
0000BD1E  662E0F1F84000000  nop word [cs:rax+rax+0x0]
         -0000
0000BD28  662E0F1F84000000  nop word [cs:rax+rax+0x0]
         -0000
0000BD32  662E0F1F84000000  nop word [cs:rax+rax+0x0]
         -0000
0000BD3C  662E0F1F84000000  nop word [cs:rax+rax+0x0]
         -0000
0000BD46  662E0F1F84000000  nop word [cs:rax+rax+0x0]
         -0000
0000BD50  662E0F1F84000000  nop word [cs:rax+rax+0x0]
         -0000
0000BD5A  662E0F1F84000000  nop word [cs:rax+rax+0x0]
         -0000
0000BD64  662E0F1F84000000  nop word [cs:rax+rax+0x0]
         -0000
0000BD6E  662E0F1F84000000  nop word [cs:rax+rax+0x0]
         -0000
0000BD78  662E0F1F84000000  nop word [cs:rax+rax+0x0]
         -0000
0000BD82  662E0F1F84000000  nop word [cs:rax+rax+0x0]
         -0000
0000BD8C  662E0F1F84000000  nop word [cs:rax+rax+0x0]
         -0000
0000BD96  662E0F1F84000000  nop word [cs:rax+rax+0x0]
         -0000
0000BDA0  662E0F1F84000000  nop word [cs:rax+rax+0x0]
         -0000
0000BDAA  662E0F1F84000000  nop word [cs:rax+rax+0x0]
         -0000
0000BDB4  662E0F1F84000000  nop word [cs:rax+rax+0x0]
         -0000
0000BDBE  662E0F1F84000000  nop word [cs:rax+rax+0x0]
         -0000
0000BDC8  662E0F1F84000000  nop word [cs:rax+rax+0x0]
         -0000
0000BDD2  662E0F1F84000000  nop word [cs:rax+rax+0x0]
         -0000
0000BDDC  662E0F1F84000000  nop word [cs:rax+rax+0x0]
         -0000
0000BDE6  662E0F1F84000000  nop word [cs:rax+rax+0x0]
         -0000
0000BDF0  662E0F1F84000000  nop word [cs:rax+rax+0x0]
         -0000
0000BDFA  662E0F1F84000000  nop word [cs:rax+rax+0x0]
         -0000
0000BE04  662E0F1F84000000  nop word [cs:rax+rax+0x0]
         -0000
0000BE0E  662E0F1F84000000  nop word [cs:rax+rax+0x0]
         -0000
0000BE18  662E0F1F84000000  nop word [cs:rax+rax+0x0]
         -0000
0000BE22  662E0F1F84000000  nop word [cs:rax+rax+0x0]
         -0000
0000BE2C  662E0F1F84000000  nop word [cs:rax+rax+0x0]
         -0000
0000BE36  662E0F1F84000000  nop word [cs:rax+rax+0x0]
         -0000
0000BE40  662E0F1F84000000  nop word [cs:rax+rax+0x0]
         -0000
0000BE4A  662E0F1F84000000  nop word [cs:rax+rax+0x0]
         -0000
0000BE54  662E0F1F84000000  nop word [cs:rax+rax+0x0]
         -0000
0000BE5E  662E0F1F84000000  nop word [cs:rax+rax+0x0]
         -0000
0000BE68  662E0F1F84000000  nop word [cs:rax+rax+0x0]
         -0000
0000BE72  662E0F1F84000000  nop word [cs:rax+rax+0x0]
         -0000
0000BE7C  662E0F1F84000000  nop word [cs:rax+rax+0x0]
         -0000
0000BE86  662E0F1F84000000  nop word [cs:rax+rax+0x0]
         -0000
0000BE90  662E0F1F84000000  nop word [cs:rax+rax+0x0]
         -0000
0000BE9A  662E0F1F84000000  nop word [cs:rax+rax+0x0]
         -0000
0000BEA4  662E0F1F84000000  nop word [cs:rax+rax+0x0]
         -0000
0000BEAE  662E0F1F84000000  nop word [cs:rax+rax+0x0]
         -0000
0000BEB8  662E0F1F84000000  nop word [cs:rax+rax+0x0]
         -0000
0000BEC2  662E0F1F84000000  nop word [cs:rax+rax+0x0]
         -0000
0000BECC  662E0F1F84000000  nop word [cs:rax+rax+0x0]
         -0000
0000BED6  662E0F1F84000000  nop word [cs:rax+rax+0x0]
         -0000
0000BEE0  662E0F1F84000000  nop word [cs:rax+rax+0x0]
         -0000
0000BEEA  662E0F1F84000000  nop word [cs:rax+rax+0x0]
         -0000
0000BEF4  662E0F1F84000000  nop word [cs:rax+rax+0x0]
         -0000
0000BEFE  662E0F1F84000000  nop word [cs:rax+rax+0x0]
         -0000
0000BF08  662E0F1F84000000  nop word [cs:rax+rax+0x0]
         -0000
0000BF12  662E0F1F84000000  nop word [cs:rax+rax+0x0]
         -0000
0000BF1C  662E0F1F84000000  nop word [cs:rax+rax+0x0]
         -0000
0000BF26  662E0F1F84000000  nop word [cs:rax+rax+0x0]
         -0000
0000BF30  662E0F1F84000000  nop word [cs:rax+rax+0x0]
         -0000
0000BF3A  662E0F1F84000000  nop word [cs:rax+rax+0x0]
         -0000
0000BF44  662E0F1F84000000  nop word [cs:rax+rax+0x0]
         -0000
0000BF4E  662E0F1F84000000  nop word [cs:rax+rax+0x0]
         -0000
0000BF58  662E0F1F84000000  nop word [cs:rax+rax+0x0]
         -0000
0000BF62  662E0F1F84000000  nop word [cs:rax+rax+0x0]
         -0000
0000BF6C  662E0F1F84000000  nop word [cs:rax+rax+0x0]
         -0000
0000BF76  662E0F1F84000000  nop word [cs:rax+rax+0x0]
         -0000
0000BF80  662E0F1F84000000  nop word [cs:rax+rax+0x0]
         -0000
0000BF8A  662E0F1F84000000  nop word [cs:rax+rax+0x0]
         -0000
0000BF94  662E0F1F84000000  nop word [cs:rax+rax+0x0]
         -0000
0000BF9E  662E0F1F84000000  nop word [cs:rax+rax+0x0]
         -0000
0000BFA8  662E0F1F84000000  nop word [cs:rax+rax+0x0]
         -0000
0000BFB2  662E0F1F84000000  nop word [cs:rax+rax+0x0]
         -0000
0000BFBC  662E0F1F84000000  nop word [cs:rax+rax+0x0]
         -0000
0000BFC6  662E0F1F84000000  nop word [cs:rax+rax+0x0]
         -0000
0000BFD0  662E0F1F84000000  nop word [cs:rax+rax+0x0]
         -0000
0000BFDA  662E0F1F84000000  nop word [cs:rax+rax+0x0]
         -0000
0000BFE4  662E0F1F84000000  nop word [cs:rax+rax+0x0]
         -0000
0000BFEE  662E0F1F84000000  nop word [cs:rax+rax+0x0]
         -0000
0000BFF8  0F1F840000000000  nop dword [rax+rax+0x0]
0000C000  55                push rbp
0000C001  4889E5            mov rbp,rsp
0000C004  4883EC20          sub rsp,byte +0x20
0000C008  E8B3C6FFFF        call 0x86c0
0000C00D  BAFFFF0000        mov edx,0xffff
0000C012  BE2C010000        mov esi,0x12c
0000C017  48BF000200008001  mov rdi,0x18000000200
         -0000
0000C021  E83AE3FFFF        call 0xa360
0000C026  BAFFFF0000        mov edx,0xffff
0000C02B  BE32000000        mov esi,0x32
0000C030  48BF9C0100000001  mov rdi,0x1000000019c
         -0000
0000C03A  E821E3FFFF        call 0xa360
0000C03F  BAFFFF0000        mov edx,0xffff
0000C044  BE32000000        mov esi,0x32
0000C049  48BF640200000001  mov rdi,0x10000000264
         -0000
0000C053  E808E3FFFF        call 0xa360
0000C058  BAFFFF0000        mov edx,0xffff
0000C05D  48BE44020000BE00  mov rsi,0xbe00000244
         -0000
0000C067  48BF320000003C00  mov rdi,0x3c00000032
         -0000
0000C071  E83AE4FFFF        call 0xa4b0
0000C076  488D7DE0          lea rdi,[rbp-0x20]
0000C07A  BEFFFF0000        mov esi,0xffff
0000C07F  660F6F0509210000  movdqa xmm0,oword [rel 0xe190]
0000C087  0F2945E0          movaps oword [rbp-0x20],xmm0
0000C08B  660F6F050D210000  movdqa xmm0,oword [rel 0xe1a0]
0000C093  0F2945F0          movaps oword [rbp-0x10],xmm0
0000C097  E894D3FFFF        call 0x9430
0000C09C  C9                leave
0000C09D  C3                ret
0000C09E  0000              add [rax],al
0000C0A0  0000              add [rax],al
0000C0A2  0000              add [rax],al
0000C0A4  0000              add [rax],al
0000C0A6  0000              add [rax],al
0000C0A8  0000              add [rax],al
0000C0AA  0000              add [rax],al
0000C0AC  0000              add [rax],al
0000C0AE  0000              add [rax],al
0000C0B0  0000              add [rax],al
0000C0B2  0000              add [rax],al
0000C0B4  0000              add [rax],al
0000C0B6  0000              add [rax],al
0000C0B8  0000              add [rax],al
0000C0BA  0000              add [rax],al
0000C0BC  0000              add [rax],al
0000C0BE  0000              add [rax],al
0000C0C0  0000              add [rax],al
0000C0C2  0000              add [rax],al
0000C0C4  0000              add [rax],al
0000C0C6  0000              add [rax],al
0000C0C8  0000              add [rax],al
0000C0CA  0000              add [rax],al
0000C0CC  0000              add [rax],al
0000C0CE  0000              add [rax],al
0000C0D0  0000              add [rax],al
0000C0D2  0000              add [rax],al
0000C0D4  0000              add [rax],al
0000C0D6  0000              add [rax],al
0000C0D8  0000              add [rax],al
0000C0DA  0000              add [rax],al
0000C0DC  0000              add [rax],al
0000C0DE  0000              add [rax],al
0000C0E0  0000              add [rax],al
0000C0E2  0000              add [rax],al
0000C0E4  0000              add [rax],al
0000C0E6  0000              add [rax],al
0000C0E8  0000              add [rax],al
0000C0EA  0000              add [rax],al
0000C0EC  0000              add [rax],al
0000C0EE  0000              add [rax],al
0000C0F0  0000              add [rax],al
0000C0F2  0000              add [rax],al
0000C0F4  0000              add [rax],al
0000C0F6  0000              add [rax],al
0000C0F8  0000              add [rax],al
0000C0FA  0000              add [rax],al
0000C0FC  0000              add [rax],al
0000C0FE  0000              add [rax],al
0000C100  0000              add [rax],al
0000C102  0000              add [rax],al
0000C104  0000              add [rax],al
0000C106  0000              add [rax],al
0000C108  0000              add [rax],al
0000C10A  0000              add [rax],al
0000C10C  0000              add [rax],al
0000C10E  0000              add [rax],al
0000C110  0000              add [rax],al
0000C112  0000              add [rax],al
0000C114  0000              add [rax],al
0000C116  0000              add [rax],al
0000C118  0000              add [rax],al
0000C11A  0000              add [rax],al
0000C11C  0000              add [rax],al
0000C11E  0000              add [rax],al
0000C120  0000              add [rax],al
0000C122  0000              add [rax],al
0000C124  0000              add [rax],al
0000C126  0000              add [rax],al
0000C128  0000              add [rax],al
0000C12A  0000              add [rax],al
0000C12C  0000              add [rax],al
0000C12E  0000              add [rax],al
0000C130  0000              add [rax],al
0000C132  0000              add [rax],al
0000C134  0000              add [rax],al
0000C136  0000              add [rax],al
0000C138  0000              add [rax],al
0000C13A  0000              add [rax],al
0000C13C  0000              add [rax],al
0000C13E  0000              add [rax],al
0000C140  0000              add [rax],al
0000C142  0000              add [rax],al
0000C144  0000              add [rax],al
0000C146  0000              add [rax],al
0000C148  0000              add [rax],al
0000C14A  0000              add [rax],al
0000C14C  0000              add [rax],al
0000C14E  0000              add [rax],al
0000C150  0000              add [rax],al
0000C152  0000              add [rax],al
0000C154  0000              add [rax],al
0000C156  0000              add [rax],al
0000C158  0000              add [rax],al
0000C15A  0000              add [rax],al
0000C15C  0000              add [rax],al
0000C15E  0000              add [rax],al
0000C160  0000              add [rax],al
0000C162  0000              add [rax],al
0000C164  0000              add [rax],al
0000C166  0000              add [rax],al
0000C168  0000              add [rax],al
0000C16A  0000              add [rax],al
0000C16C  0000              add [rax],al
0000C16E  0000              add [rax],al
0000C170  0000              add [rax],al
0000C172  0000              add [rax],al
0000C174  0000              add [rax],al
0000C176  0000              add [rax],al
0000C178  0000              add [rax],al
0000C17A  0000              add [rax],al
0000C17C  0000              add [rax],al
0000C17E  0000              add [rax],al
0000C180  0000              add [rax],al
0000C182  0000              add [rax],al
0000C184  0000              add [rax],al
0000C186  0000              add [rax],al
0000C188  0000              add [rax],al
0000C18A  0000              add [rax],al
0000C18C  0000              add [rax],al
0000C18E  0000              add [rax],al
0000C190  0000              add [rax],al
0000C192  0000              add [rax],al
0000C194  0000              add [rax],al
0000C196  0000              add [rax],al
0000C198  0000              add [rax],al
0000C19A  0000              add [rax],al
0000C19C  0000              add [rax],al
0000C19E  0000              add [rax],al
0000C1A0  0000              add [rax],al
0000C1A2  0000              add [rax],al
0000C1A4  0000              add [rax],al
0000C1A6  0000              add [rax],al
0000C1A8  0000              add [rax],al
0000C1AA  0000              add [rax],al
0000C1AC  0000              add [rax],al
0000C1AE  0000              add [rax],al
0000C1B0  0000              add [rax],al
0000C1B2  0000              add [rax],al
0000C1B4  0000              add [rax],al
0000C1B6  0000              add [rax],al
0000C1B8  0000              add [rax],al
0000C1BA  0000              add [rax],al
0000C1BC  0000              add [rax],al
0000C1BE  0000              add [rax],al
0000C1C0  0000              add [rax],al
0000C1C2  0000              add [rax],al
0000C1C4  0000              add [rax],al
0000C1C6  0000              add [rax],al
0000C1C8  0000              add [rax],al
0000C1CA  0000              add [rax],al
0000C1CC  0000              add [rax],al
0000C1CE  0000              add [rax],al
0000C1D0  0000              add [rax],al
0000C1D2  0000              add [rax],al
0000C1D4  0000              add [rax],al
0000C1D6  0000              add [rax],al
0000C1D8  0000              add [rax],al
0000C1DA  0000              add [rax],al
0000C1DC  0000              add [rax],al
0000C1DE  0000              add [rax],al
0000C1E0  0000              add [rax],al
0000C1E2  0000              add [rax],al
0000C1E4  0000              add [rax],al
0000C1E6  0000              add [rax],al
0000C1E8  0000              add [rax],al
0000C1EA  0000              add [rax],al
0000C1EC  0000              add [rax],al
0000C1EE  0000              add [rax],al
0000C1F0  0000              add [rax],al
0000C1F2  0000              add [rax],al
0000C1F4  0000              add [rax],al
0000C1F6  0000              add [rax],al
0000C1F8  0000              add [rax],al
0000C1FA  0000              add [rax],al
0000C1FC  0000              add [rax],al
0000C1FE  0000              add [rax],al
0000C200  0000              add [rax],al
0000C202  0000              add [rax],al
0000C204  0000              add [rax],al
0000C206  0000              add [rax],al
0000C208  0000              add [rax],al
0000C20A  0000              add [rax],al
0000C20C  0000              add [rax],al
0000C20E  0000              add [rax],al
0000C210  0000              add [rax],al
0000C212  0000              add [rax],al
0000C214  0000              add [rax],al
0000C216  0000              add [rax],al
0000C218  0000              add [rax],al
0000C21A  0000              add [rax],al
0000C21C  0000              add [rax],al
0000C21E  0000              add [rax],al
0000C220  0000              add [rax],al
0000C222  0000              add [rax],al
0000C224  0000              add [rax],al
0000C226  0000              add [rax],al
0000C228  0000              add [rax],al
0000C22A  0000              add [rax],al
0000C22C  0000              add [rax],al
0000C22E  0000              add [rax],al
0000C230  0000              add [rax],al
0000C232  0000              add [rax],al
0000C234  0000              add [rax],al
0000C236  0000              add [rax],al
0000C238  0000              add [rax],al
0000C23A  0000              add [rax],al
0000C23C  0000              add [rax],al
0000C23E  0000              add [rax],al
0000C240  0000              add [rax],al
0000C242  0000              add [rax],al
0000C244  0000              add [rax],al
0000C246  0000              add [rax],al
0000C248  0000              add [rax],al
0000C24A  0000              add [rax],al
0000C24C  0000              add [rax],al
0000C24E  0000              add [rax],al
0000C250  0000              add [rax],al
0000C252  0000              add [rax],al
0000C254  0000              add [rax],al
0000C256  0000              add [rax],al
0000C258  0000              add [rax],al
0000C25A  0000              add [rax],al
0000C25C  0000              add [rax],al
0000C25E  0000              add [rax],al
0000C260  0000              add [rax],al
0000C262  0000              add [rax],al
0000C264  0000              add [rax],al
0000C266  0000              add [rax],al
0000C268  0000              add [rax],al
0000C26A  0000              add [rax],al
0000C26C  0000              add [rax],al
0000C26E  0000              add [rax],al
0000C270  0000              add [rax],al
0000C272  0000              add [rax],al
0000C274  0000              add [rax],al
0000C276  0000              add [rax],al
0000C278  0000              add [rax],al
0000C27A  0000              add [rax],al
0000C27C  0000              add [rax],al
0000C27E  0000              add [rax],al
0000C280  0000              add [rax],al
0000C282  0000              add [rax],al
0000C284  0000              add [rax],al
0000C286  0000              add [rax],al
0000C288  0000              add [rax],al
0000C28A  0000              add [rax],al
0000C28C  0000              add [rax],al
0000C28E  0000              add [rax],al
0000C290  0000              add [rax],al
0000C292  0000              add [rax],al
0000C294  0000              add [rax],al
0000C296  0000              add [rax],al
0000C298  0000              add [rax],al
0000C29A  0000              add [rax],al
0000C29C  0000              add [rax],al
0000C29E  0000              add [rax],al
0000C2A0  0000              add [rax],al
0000C2A2  0000              add [rax],al
0000C2A4  0000              add [rax],al
0000C2A6  0000              add [rax],al
0000C2A8  0000              add [rax],al
0000C2AA  0000              add [rax],al
0000C2AC  0000              add [rax],al
0000C2AE  0000              add [rax],al
0000C2B0  0000              add [rax],al
0000C2B2  0000              add [rax],al
0000C2B4  0000              add [rax],al
0000C2B6  0000              add [rax],al
0000C2B8  0000              add [rax],al
0000C2BA  0000              add [rax],al
0000C2BC  0000              add [rax],al
0000C2BE  0000              add [rax],al
0000C2C0  0000              add [rax],al
0000C2C2  0000              add [rax],al
0000C2C4  0000              add [rax],al
0000C2C6  0000              add [rax],al
0000C2C8  0000              add [rax],al
0000C2CA  0000              add [rax],al
0000C2CC  0000              add [rax],al
0000C2CE  0000              add [rax],al
0000C2D0  0000              add [rax],al
0000C2D2  0000              add [rax],al
0000C2D4  0000              add [rax],al
0000C2D6  0000              add [rax],al
0000C2D8  0000              add [rax],al
0000C2DA  0000              add [rax],al
0000C2DC  0000              add [rax],al
0000C2DE  0000              add [rax],al
0000C2E0  0000              add [rax],al
0000C2E2  0000              add [rax],al
0000C2E4  0000              add [rax],al
0000C2E6  0000              add [rax],al
0000C2E8  0000              add [rax],al
0000C2EA  0000              add [rax],al
0000C2EC  0000              add [rax],al
0000C2EE  0000              add [rax],al
0000C2F0  0000              add [rax],al
0000C2F2  0000              add [rax],al
0000C2F4  0000              add [rax],al
0000C2F6  0000              add [rax],al
0000C2F8  0000              add [rax],al
0000C2FA  0000              add [rax],al
0000C2FC  0000              add [rax],al
0000C2FE  0000              add [rax],al
0000C300  0000              add [rax],al
0000C302  0000              add [rax],al
0000C304  0000              add [rax],al
0000C306  0000              add [rax],al
0000C308  0000              add [rax],al
0000C30A  0000              add [rax],al
0000C30C  0000              add [rax],al
0000C30E  0000              add [rax],al
0000C310  0000              add [rax],al
0000C312  0000              add [rax],al
0000C314  0000              add [rax],al
0000C316  0000              add [rax],al
0000C318  0000              add [rax],al
0000C31A  0000              add [rax],al
0000C31C  0000              add [rax],al
0000C31E  0000              add [rax],al
0000C320  0000              add [rax],al
0000C322  0000              add [rax],al
0000C324  0000              add [rax],al
0000C326  0000              add [rax],al
0000C328  0000              add [rax],al
0000C32A  0000              add [rax],al
0000C32C  0000              add [rax],al
0000C32E  0000              add [rax],al
0000C330  0000              add [rax],al
0000C332  0000              add [rax],al
0000C334  0000              add [rax],al
0000C336  0000              add [rax],al
0000C338  0000              add [rax],al
0000C33A  0000              add [rax],al
0000C33C  0000              add [rax],al
0000C33E  0000              add [rax],al
0000C340  0000              add [rax],al
0000C342  0000              add [rax],al
0000C344  0000              add [rax],al
0000C346  0000              add [rax],al
0000C348  0000              add [rax],al
0000C34A  0000              add [rax],al
0000C34C  0000              add [rax],al
0000C34E  0000              add [rax],al
0000C350  0000              add [rax],al
0000C352  0000              add [rax],al
0000C354  0000              add [rax],al
0000C356  0000              add [rax],al
0000C358  0000              add [rax],al
0000C35A  0000              add [rax],al
0000C35C  0000              add [rax],al
0000C35E  0000              add [rax],al
0000C360  0000              add [rax],al
0000C362  0000              add [rax],al
0000C364  0000              add [rax],al
0000C366  0000              add [rax],al
0000C368  0000              add [rax],al
0000C36A  0000              add [rax],al
0000C36C  0000              add [rax],al
0000C36E  0000              add [rax],al
0000C370  0000              add [rax],al
0000C372  0000              add [rax],al
0000C374  0000              add [rax],al
0000C376  0000              add [rax],al
0000C378  0000              add [rax],al
0000C37A  0000              add [rax],al
0000C37C  0000              add [rax],al
0000C37E  0000              add [rax],al
0000C380  0000              add [rax],al
0000C382  0000              add [rax],al
0000C384  0000              add [rax],al
0000C386  0000              add [rax],al
0000C388  0000              add [rax],al
0000C38A  0000              add [rax],al
0000C38C  0000              add [rax],al
0000C38E  0000              add [rax],al
0000C390  0000              add [rax],al
0000C392  0000              add [rax],al
0000C394  0000              add [rax],al
0000C396  0000              add [rax],al
0000C398  0000              add [rax],al
0000C39A  0000              add [rax],al
0000C39C  0000              add [rax],al
0000C39E  0000              add [rax],al
0000C3A0  0000              add [rax],al
0000C3A2  0000              add [rax],al
0000C3A4  0000              add [rax],al
0000C3A6  0000              add [rax],al
0000C3A8  0000              add [rax],al
0000C3AA  0000              add [rax],al
0000C3AC  0000              add [rax],al
0000C3AE  0000              add [rax],al
0000C3B0  0000              add [rax],al
0000C3B2  0000              add [rax],al
0000C3B4  0000              add [rax],al
0000C3B6  0000              add [rax],al
0000C3B8  0000              add [rax],al
0000C3BA  0000              add [rax],al
0000C3BC  0000              add [rax],al
0000C3BE  0000              add [rax],al
0000C3C0  0000              add [rax],al
0000C3C2  0000              add [rax],al
0000C3C4  0000              add [rax],al
0000C3C6  0000              add [rax],al
0000C3C8  0000              add [rax],al
0000C3CA  0000              add [rax],al
0000C3CC  0000              add [rax],al
0000C3CE  0000              add [rax],al
0000C3D0  0000              add [rax],al
0000C3D2  0000              add [rax],al
0000C3D4  0000              add [rax],al
0000C3D6  0000              add [rax],al
0000C3D8  0000              add [rax],al
0000C3DA  0000              add [rax],al
0000C3DC  0000              add [rax],al
0000C3DE  0000              add [rax],al
0000C3E0  0000              add [rax],al
0000C3E2  0000              add [rax],al
0000C3E4  0000              add [rax],al
0000C3E6  0000              add [rax],al
0000C3E8  0000              add [rax],al
0000C3EA  0000              add [rax],al
0000C3EC  0000              add [rax],al
0000C3EE  0000              add [rax],al
0000C3F0  0000              add [rax],al
0000C3F2  0000              add [rax],al
0000C3F4  0000              add [rax],al
0000C3F6  0000              add [rax],al
0000C3F8  0000              add [rax],al
0000C3FA  0000              add [rax],al
0000C3FC  0000              add [rax],al
0000C3FE  0000              add [rax],al
0000C400  0000              add [rax],al
0000C402  0000              add [rax],al
0000C404  0000              add [rax],al
0000C406  0000              add [rax],al
0000C408  0000              add [rax],al
0000C40A  0000              add [rax],al
0000C40C  0000              add [rax],al
0000C40E  0000              add [rax],al
0000C410  0000              add [rax],al
0000C412  0000              add [rax],al
0000C414  0000              add [rax],al
0000C416  0000              add [rax],al
0000C418  0000              add [rax],al
0000C41A  0000              add [rax],al
0000C41C  0000              add [rax],al
0000C41E  0000              add [rax],al
0000C420  0000              add [rax],al
0000C422  0000              add [rax],al
0000C424  0000              add [rax],al
0000C426  0000              add [rax],al
0000C428  0000              add [rax],al
0000C42A  0000              add [rax],al
0000C42C  0000              add [rax],al
0000C42E  0000              add [rax],al
0000C430  0000              add [rax],al
0000C432  0000              add [rax],al
0000C434  0000              add [rax],al
0000C436  0000              add [rax],al
0000C438  0000              add [rax],al
0000C43A  0000              add [rax],al
0000C43C  0000              add [rax],al
0000C43E  0000              add [rax],al
0000C440  0000              add [rax],al
0000C442  0000              add [rax],al
0000C444  0000              add [rax],al
0000C446  0000              add [rax],al
0000C448  0000              add [rax],al
0000C44A  0000              add [rax],al
0000C44C  0000              add [rax],al
0000C44E  0000              add [rax],al
0000C450  0000              add [rax],al
0000C452  0000              add [rax],al
0000C454  0000              add [rax],al
0000C456  0000              add [rax],al
0000C458  0000              add [rax],al
0000C45A  0000              add [rax],al
0000C45C  0000              add [rax],al
0000C45E  0000              add [rax],al
0000C460  0000              add [rax],al
0000C462  0000              add [rax],al
0000C464  0000              add [rax],al
0000C466  0000              add [rax],al
0000C468  0000              add [rax],al
0000C46A  0000              add [rax],al
0000C46C  0000              add [rax],al
0000C46E  0000              add [rax],al
0000C470  0000              add [rax],al
0000C472  0000              add [rax],al
0000C474  0000              add [rax],al
0000C476  0000              add [rax],al
0000C478  0000              add [rax],al
0000C47A  0000              add [rax],al
0000C47C  0000              add [rax],al
0000C47E  0000              add [rax],al
0000C480  0000              add [rax],al
0000C482  0000              add [rax],al
0000C484  0000              add [rax],al
0000C486  0000              add [rax],al
0000C488  0000              add [rax],al
0000C48A  0000              add [rax],al
0000C48C  0000              add [rax],al
0000C48E  0000              add [rax],al
0000C490  0000              add [rax],al
0000C492  0000              add [rax],al
0000C494  0000              add [rax],al
0000C496  0000              add [rax],al
0000C498  0000              add [rax],al
0000C49A  0000              add [rax],al
0000C49C  0000              add [rax],al
0000C49E  0000              add [rax],al
0000C4A0  0000              add [rax],al
0000C4A2  0000              add [rax],al
0000C4A4  0000              add [rax],al
0000C4A6  0000              add [rax],al
0000C4A8  0000              add [rax],al
0000C4AA  0000              add [rax],al
0000C4AC  0000              add [rax],al
0000C4AE  0000              add [rax],al
0000C4B0  0000              add [rax],al
0000C4B2  0000              add [rax],al
0000C4B4  0000              add [rax],al
0000C4B6  0000              add [rax],al
0000C4B8  0000              add [rax],al
0000C4BA  0000              add [rax],al
0000C4BC  0000              add [rax],al
0000C4BE  0000              add [rax],al
0000C4C0  0000              add [rax],al
0000C4C2  0000              add [rax],al
0000C4C4  0000              add [rax],al
0000C4C6  0000              add [rax],al
0000C4C8  0000              add [rax],al
0000C4CA  0000              add [rax],al
0000C4CC  0000              add [rax],al
0000C4CE  0000              add [rax],al
0000C4D0  0000              add [rax],al
0000C4D2  0000              add [rax],al
0000C4D4  0000              add [rax],al
0000C4D6  0000              add [rax],al
0000C4D8  0000              add [rax],al
0000C4DA  0000              add [rax],al
0000C4DC  0000              add [rax],al
0000C4DE  0000              add [rax],al
0000C4E0  0000              add [rax],al
0000C4E2  0000              add [rax],al
0000C4E4  0000              add [rax],al
0000C4E6  0000              add [rax],al
0000C4E8  0000              add [rax],al
0000C4EA  0000              add [rax],al
0000C4EC  0000              add [rax],al
0000C4EE  0000              add [rax],al
0000C4F0  0000              add [rax],al
0000C4F2  0000              add [rax],al
0000C4F4  0000              add [rax],al
0000C4F6  0000              add [rax],al
0000C4F8  0000              add [rax],al
0000C4FA  0000              add [rax],al
0000C4FC  0000              add [rax],al
0000C4FE  0000              add [rax],al
0000C500  0000              add [rax],al
0000C502  0000              add [rax],al
0000C504  0000              add [rax],al
0000C506  0000              add [rax],al
0000C508  0000              add [rax],al
0000C50A  0000              add [rax],al
0000C50C  0000              add [rax],al
0000C50E  0000              add [rax],al
0000C510  0000              add [rax],al
0000C512  0000              add [rax],al
0000C514  0000              add [rax],al
0000C516  0000              add [rax],al
0000C518  0000              add [rax],al
0000C51A  0000              add [rax],al
0000C51C  0000              add [rax],al
0000C51E  0000              add [rax],al
0000C520  0000              add [rax],al
0000C522  0000              add [rax],al
0000C524  0000              add [rax],al
0000C526  0000              add [rax],al
0000C528  0000              add [rax],al
0000C52A  0000              add [rax],al
0000C52C  0000              add [rax],al
0000C52E  0000              add [rax],al
0000C530  0000              add [rax],al
0000C532  0000              add [rax],al
0000C534  0000              add [rax],al
0000C536  0000              add [rax],al
0000C538  0000              add [rax],al
0000C53A  0000              add [rax],al
0000C53C  0000              add [rax],al
0000C53E  0000              add [rax],al
0000C540  0000              add [rax],al
0000C542  0000              add [rax],al
0000C544  0000              add [rax],al
0000C546  0000              add [rax],al
0000C548  0000              add [rax],al
0000C54A  0000              add [rax],al
0000C54C  0000              add [rax],al
0000C54E  0000              add [rax],al
0000C550  0000              add [rax],al
0000C552  0000              add [rax],al
0000C554  0000              add [rax],al
0000C556  0000              add [rax],al
0000C558  0000              add [rax],al
0000C55A  0000              add [rax],al
0000C55C  0000              add [rax],al
0000C55E  0000              add [rax],al
0000C560  0000              add [rax],al
0000C562  0000              add [rax],al
0000C564  0000              add [rax],al
0000C566  0000              add [rax],al
0000C568  0000              add [rax],al
0000C56A  0000              add [rax],al
0000C56C  0000              add [rax],al
0000C56E  0000              add [rax],al
0000C570  0000              add [rax],al
0000C572  0000              add [rax],al
0000C574  0000              add [rax],al
0000C576  0000              add [rax],al
0000C578  0000              add [rax],al
0000C57A  0000              add [rax],al
0000C57C  0000              add [rax],al
0000C57E  0000              add [rax],al
0000C580  0000              add [rax],al
0000C582  0000              add [rax],al
0000C584  0000              add [rax],al
0000C586  0000              add [rax],al
0000C588  0000              add [rax],al
0000C58A  0000              add [rax],al
0000C58C  0000              add [rax],al
0000C58E  0000              add [rax],al
0000C590  0000              add [rax],al
0000C592  0000              add [rax],al
0000C594  0000              add [rax],al
0000C596  0000              add [rax],al
0000C598  0000              add [rax],al
0000C59A  0000              add [rax],al
0000C59C  0000              add [rax],al
0000C59E  0000              add [rax],al
0000C5A0  0000              add [rax],al
0000C5A2  0000              add [rax],al
0000C5A4  0000              add [rax],al
0000C5A6  0000              add [rax],al
0000C5A8  0000              add [rax],al
0000C5AA  0000              add [rax],al
0000C5AC  0000              add [rax],al
0000C5AE  0000              add [rax],al
0000C5B0  0000              add [rax],al
0000C5B2  0000              add [rax],al
0000C5B4  0000              add [rax],al
0000C5B6  0000              add [rax],al
0000C5B8  0000              add [rax],al
0000C5BA  0000              add [rax],al
0000C5BC  0000              add [rax],al
0000C5BE  0000              add [rax],al
0000C5C0  0000              add [rax],al
0000C5C2  0000              add [rax],al
0000C5C4  0000              add [rax],al
0000C5C6  0000              add [rax],al
0000C5C8  0000              add [rax],al
0000C5CA  0000              add [rax],al
0000C5CC  0000              add [rax],al
0000C5CE  0000              add [rax],al
0000C5D0  0000              add [rax],al
0000C5D2  0000              add [rax],al
0000C5D4  0000              add [rax],al
0000C5D6  0000              add [rax],al
0000C5D8  0000              add [rax],al
0000C5DA  0000              add [rax],al
0000C5DC  0000              add [rax],al
0000C5DE  0000              add [rax],al
0000C5E0  0000              add [rax],al
0000C5E2  0000              add [rax],al
0000C5E4  0000              add [rax],al
0000C5E6  0000              add [rax],al
0000C5E8  0000              add [rax],al
0000C5EA  0000              add [rax],al
0000C5EC  0000              add [rax],al
0000C5EE  0000              add [rax],al
0000C5F0  0000              add [rax],al
0000C5F2  0000              add [rax],al
0000C5F4  0000              add [rax],al
0000C5F6  0000              add [rax],al
0000C5F8  0000              add [rax],al
0000C5FA  0000              add [rax],al
0000C5FC  0000              add [rax],al
0000C5FE  0000              add [rax],al
0000C600  0000              add [rax],al
0000C602  0000              add [rax],al
0000C604  0000              add [rax],al
0000C606  0000              add [rax],al
0000C608  0000              add [rax],al
0000C60A  0000              add [rax],al
0000C60C  0000              add [rax],al
0000C60E  0000              add [rax],al
0000C610  0000              add [rax],al
0000C612  0000              add [rax],al
0000C614  0000              add [rax],al
0000C616  0000              add [rax],al
0000C618  0000              add [rax],al
0000C61A  0000              add [rax],al
0000C61C  0000              add [rax],al
0000C61E  0000              add [rax],al
0000C620  0000              add [rax],al
0000C622  0000              add [rax],al
0000C624  0000              add [rax],al
0000C626  0000              add [rax],al
0000C628  0000              add [rax],al
0000C62A  0000              add [rax],al
0000C62C  0000              add [rax],al
0000C62E  0000              add [rax],al
0000C630  0000              add [rax],al
0000C632  0000              add [rax],al
0000C634  0000              add [rax],al
0000C636  0000              add [rax],al
0000C638  0000              add [rax],al
0000C63A  0000              add [rax],al
0000C63C  0000              add [rax],al
0000C63E  0000              add [rax],al
0000C640  0000              add [rax],al
0000C642  0000              add [rax],al
0000C644  0000              add [rax],al
0000C646  0000              add [rax],al
0000C648  0000              add [rax],al
0000C64A  0000              add [rax],al
0000C64C  0000              add [rax],al
0000C64E  0000              add [rax],al
0000C650  0000              add [rax],al
0000C652  0000              add [rax],al
0000C654  0000              add [rax],al
0000C656  0000              add [rax],al
0000C658  0000              add [rax],al
0000C65A  0000              add [rax],al
0000C65C  0000              add [rax],al
0000C65E  0000              add [rax],al
0000C660  0000              add [rax],al
0000C662  0000              add [rax],al
0000C664  0000              add [rax],al
0000C666  0000              add [rax],al
0000C668  0000              add [rax],al
0000C66A  0000              add [rax],al
0000C66C  0000              add [rax],al
0000C66E  0000              add [rax],al
0000C670  0000              add [rax],al
0000C672  0000              add [rax],al
0000C674  0000              add [rax],al
0000C676  0000              add [rax],al
0000C678  0000              add [rax],al
0000C67A  0000              add [rax],al
0000C67C  0000              add [rax],al
0000C67E  0000              add [rax],al
0000C680  0000              add [rax],al
0000C682  0000              add [rax],al
0000C684  0000              add [rax],al
0000C686  0000              add [rax],al
0000C688  0000              add [rax],al
0000C68A  0000              add [rax],al
0000C68C  0000              add [rax],al
0000C68E  0000              add [rax],al
0000C690  0000              add [rax],al
0000C692  0000              add [rax],al
0000C694  0000              add [rax],al
0000C696  0000              add [rax],al
0000C698  0000              add [rax],al
0000C69A  0000              add [rax],al
0000C69C  0000              add [rax],al
0000C69E  0000              add [rax],al
0000C6A0  0000              add [rax],al
0000C6A2  0000              add [rax],al
0000C6A4  0000              add [rax],al
0000C6A6  0000              add [rax],al
0000C6A8  0000              add [rax],al
0000C6AA  0000              add [rax],al
0000C6AC  0000              add [rax],al
0000C6AE  0000              add [rax],al
0000C6B0  0000              add [rax],al
0000C6B2  0000              add [rax],al
0000C6B4  0000              add [rax],al
0000C6B6  0000              add [rax],al
0000C6B8  0000              add [rax],al
0000C6BA  0000              add [rax],al
0000C6BC  0000              add [rax],al
0000C6BE  0000              add [rax],al
0000C6C0  0000              add [rax],al
0000C6C2  0000              add [rax],al
0000C6C4  0000              add [rax],al
0000C6C6  0000              add [rax],al
0000C6C8  0000              add [rax],al
0000C6CA  0000              add [rax],al
0000C6CC  0000              add [rax],al
0000C6CE  0000              add [rax],al
0000C6D0  0000              add [rax],al
0000C6D2  0000              add [rax],al
0000C6D4  0000              add [rax],al
0000C6D6  0000              add [rax],al
0000C6D8  0000              add [rax],al
0000C6DA  0000              add [rax],al
0000C6DC  0000              add [rax],al
0000C6DE  0000              add [rax],al
0000C6E0  0000              add [rax],al
0000C6E2  0000              add [rax],al
0000C6E4  0000              add [rax],al
0000C6E6  0000              add [rax],al
0000C6E8  0000              add [rax],al
0000C6EA  0000              add [rax],al
0000C6EC  0000              add [rax],al
0000C6EE  0000              add [rax],al
0000C6F0  0000              add [rax],al
0000C6F2  0000              add [rax],al
0000C6F4  0000              add [rax],al
0000C6F6  0000              add [rax],al
0000C6F8  0000              add [rax],al
0000C6FA  0000              add [rax],al
0000C6FC  0000              add [rax],al
0000C6FE  0000              add [rax],al
0000C700  0000              add [rax],al
0000C702  0000              add [rax],al
0000C704  0000              add [rax],al
0000C706  0000              add [rax],al
0000C708  0000              add [rax],al
0000C70A  0000              add [rax],al
0000C70C  0000              add [rax],al
0000C70E  0000              add [rax],al
0000C710  0000              add [rax],al
0000C712  0000              add [rax],al
0000C714  0000              add [rax],al
0000C716  0000              add [rax],al
0000C718  0000              add [rax],al
0000C71A  0000              add [rax],al
0000C71C  0000              add [rax],al
0000C71E  0000              add [rax],al
0000C720  0000              add [rax],al
0000C722  0000              add [rax],al
0000C724  0000              add [rax],al
0000C726  0000              add [rax],al
0000C728  0000              add [rax],al
0000C72A  0000              add [rax],al
0000C72C  0000              add [rax],al
0000C72E  0000              add [rax],al
0000C730  0000              add [rax],al
0000C732  0000              add [rax],al
0000C734  0000              add [rax],al
0000C736  0000              add [rax],al
0000C738  0000              add [rax],al
0000C73A  0000              add [rax],al
0000C73C  0000              add [rax],al
0000C73E  0000              add [rax],al
0000C740  0000              add [rax],al
0000C742  0000              add [rax],al
0000C744  0000              add [rax],al
0000C746  0000              add [rax],al
0000C748  0000              add [rax],al
0000C74A  0000              add [rax],al
0000C74C  0000              add [rax],al
0000C74E  0000              add [rax],al
0000C750  0000              add [rax],al
0000C752  0000              add [rax],al
0000C754  0000              add [rax],al
0000C756  0000              add [rax],al
0000C758  0000              add [rax],al
0000C75A  0000              add [rax],al
0000C75C  0000              add [rax],al
0000C75E  0000              add [rax],al
0000C760  0000              add [rax],al
0000C762  0000              add [rax],al
0000C764  0000              add [rax],al
0000C766  0000              add [rax],al
0000C768  0000              add [rax],al
0000C76A  0000              add [rax],al
0000C76C  0000              add [rax],al
0000C76E  0000              add [rax],al
0000C770  0000              add [rax],al
0000C772  0000              add [rax],al
0000C774  0000              add [rax],al
0000C776  0000              add [rax],al
0000C778  0000              add [rax],al
0000C77A  0000              add [rax],al
0000C77C  0000              add [rax],al
0000C77E  0000              add [rax],al
0000C780  0000              add [rax],al
0000C782  0000              add [rax],al
0000C784  0000              add [rax],al
0000C786  0000              add [rax],al
0000C788  0000              add [rax],al
0000C78A  0000              add [rax],al
0000C78C  0000              add [rax],al
0000C78E  0000              add [rax],al
0000C790  0000              add [rax],al
0000C792  0000              add [rax],al
0000C794  0000              add [rax],al
0000C796  0000              add [rax],al
0000C798  0000              add [rax],al
0000C79A  0000              add [rax],al
0000C79C  0000              add [rax],al
0000C79E  0000              add [rax],al
0000C7A0  0000              add [rax],al
0000C7A2  0000              add [rax],al
0000C7A4  0000              add [rax],al
0000C7A6  0000              add [rax],al
0000C7A8  0000              add [rax],al
0000C7AA  0000              add [rax],al
0000C7AC  0000              add [rax],al
0000C7AE  0000              add [rax],al
0000C7B0  0000              add [rax],al
0000C7B2  0000              add [rax],al
0000C7B4  0000              add [rax],al
0000C7B6  0000              add [rax],al
0000C7B8  0000              add [rax],al
0000C7BA  0000              add [rax],al
0000C7BC  0000              add [rax],al
0000C7BE  0000              add [rax],al
0000C7C0  0000              add [rax],al
0000C7C2  0000              add [rax],al
0000C7C4  0000              add [rax],al
0000C7C6  0000              add [rax],al
0000C7C8  0000              add [rax],al
0000C7CA  0000              add [rax],al
0000C7CC  0000              add [rax],al
0000C7CE  0000              add [rax],al
0000C7D0  0000              add [rax],al
0000C7D2  0000              add [rax],al
0000C7D4  0000              add [rax],al
0000C7D6  0000              add [rax],al
0000C7D8  0000              add [rax],al
0000C7DA  0000              add [rax],al
0000C7DC  0000              add [rax],al
0000C7DE  0000              add [rax],al
0000C7E0  0000              add [rax],al
0000C7E2  0000              add [rax],al
0000C7E4  0000              add [rax],al
0000C7E6  0000              add [rax],al
0000C7E8  0000              add [rax],al
0000C7EA  0000              add [rax],al
0000C7EC  0000              add [rax],al
0000C7EE  0000              add [rax],al
0000C7F0  0000              add [rax],al
0000C7F2  0000              add [rax],al
0000C7F4  0000              add [rax],al
0000C7F6  0000              add [rax],al
0000C7F8  0000              add [rax],al
0000C7FA  0000              add [rax],al
0000C7FC  0000              add [rax],al
0000C7FE  0000              add [rax],al
0000C800  0000              add [rax],al
0000C802  0000              add [rax],al
0000C804  0000              add [rax],al
0000C806  0000              add [rax],al
0000C808  0000              add [rax],al
0000C80A  0000              add [rax],al
0000C80C  0000              add [rax],al
0000C80E  0000              add [rax],al
0000C810  0000              add [rax],al
0000C812  0000              add [rax],al
0000C814  0000              add [rax],al
0000C816  0000              add [rax],al
0000C818  0000              add [rax],al
0000C81A  0000              add [rax],al
0000C81C  0000              add [rax],al
0000C81E  0000              add [rax],al
0000C820  0000              add [rax],al
0000C822  0000              add [rax],al
0000C824  0000              add [rax],al
0000C826  0000              add [rax],al
0000C828  0000              add [rax],al
0000C82A  0000              add [rax],al
0000C82C  0000              add [rax],al
0000C82E  0000              add [rax],al
0000C830  0000              add [rax],al
0000C832  0000              add [rax],al
0000C834  0000              add [rax],al
0000C836  0000              add [rax],al
0000C838  0000              add [rax],al
0000C83A  0000              add [rax],al
0000C83C  0000              add [rax],al
0000C83E  0000              add [rax],al
0000C840  0000              add [rax],al
0000C842  0000              add [rax],al
0000C844  0000              add [rax],al
0000C846  0000              add [rax],al
0000C848  0000              add [rax],al
0000C84A  0000              add [rax],al
0000C84C  0000              add [rax],al
0000C84E  0000              add [rax],al
0000C850  0000              add [rax],al
0000C852  0000              add [rax],al
0000C854  0000              add [rax],al
0000C856  0000              add [rax],al
0000C858  0000              add [rax],al
0000C85A  0000              add [rax],al
0000C85C  0000              add [rax],al
0000C85E  0000              add [rax],al
0000C860  0000              add [rax],al
0000C862  0000              add [rax],al
0000C864  0000              add [rax],al
0000C866  0000              add [rax],al
0000C868  0000              add [rax],al
0000C86A  0000              add [rax],al
0000C86C  0000              add [rax],al
0000C86E  0000              add [rax],al
0000C870  0000              add [rax],al
0000C872  0000              add [rax],al
0000C874  0000              add [rax],al
0000C876  0000              add [rax],al
0000C878  0000              add [rax],al
0000C87A  0000              add [rax],al
0000C87C  0000              add [rax],al
0000C87E  0000              add [rax],al
0000C880  0000              add [rax],al
0000C882  0000              add [rax],al
0000C884  0000              add [rax],al
0000C886  0000              add [rax],al
0000C888  0000              add [rax],al
0000C88A  0000              add [rax],al
0000C88C  0000              add [rax],al
0000C88E  0000              add [rax],al
0000C890  0000              add [rax],al
0000C892  0000              add [rax],al
0000C894  0000              add [rax],al
0000C896  0000              add [rax],al
0000C898  0000              add [rax],al
0000C89A  0000              add [rax],al
0000C89C  0000              add [rax],al
0000C89E  0000              add [rax],al
0000C8A0  0000              add [rax],al
0000C8A2  0000              add [rax],al
0000C8A4  0000              add [rax],al
0000C8A6  0000              add [rax],al
0000C8A8  0000              add [rax],al
0000C8AA  0000              add [rax],al
0000C8AC  0000              add [rax],al
0000C8AE  0000              add [rax],al
0000C8B0  0000              add [rax],al
0000C8B2  0000              add [rax],al
0000C8B4  0000              add [rax],al
0000C8B6  0000              add [rax],al
0000C8B8  0000              add [rax],al
0000C8BA  0000              add [rax],al
0000C8BC  0000              add [rax],al
0000C8BE  0000              add [rax],al
0000C8C0  0000              add [rax],al
0000C8C2  0000              add [rax],al
0000C8C4  0000              add [rax],al
0000C8C6  0000              add [rax],al
0000C8C8  0000              add [rax],al
0000C8CA  0000              add [rax],al
0000C8CC  0000              add [rax],al
0000C8CE  0000              add [rax],al
0000C8D0  0000              add [rax],al
0000C8D2  0000              add [rax],al
0000C8D4  0000              add [rax],al
0000C8D6  0000              add [rax],al
0000C8D8  0000              add [rax],al
0000C8DA  0000              add [rax],al
0000C8DC  0000              add [rax],al
0000C8DE  0000              add [rax],al
0000C8E0  0000              add [rax],al
0000C8E2  0000              add [rax],al
0000C8E4  0000              add [rax],al
0000C8E6  0000              add [rax],al
0000C8E8  0000              add [rax],al
0000C8EA  0000              add [rax],al
0000C8EC  0000              add [rax],al
0000C8EE  0000              add [rax],al
0000C8F0  0000              add [rax],al
0000C8F2  0000              add [rax],al
0000C8F4  0000              add [rax],al
0000C8F6  0000              add [rax],al
0000C8F8  0000              add [rax],al
0000C8FA  0000              add [rax],al
0000C8FC  0000              add [rax],al
0000C8FE  0000              add [rax],al
0000C900  0000              add [rax],al
0000C902  0000              add [rax],al
0000C904  0000              add [rax],al
0000C906  0000              add [rax],al
0000C908  0000              add [rax],al
0000C90A  0000              add [rax],al
0000C90C  0000              add [rax],al
0000C90E  0000              add [rax],al
0000C910  0000              add [rax],al
0000C912  0000              add [rax],al
0000C914  0000              add [rax],al
0000C916  0000              add [rax],al
0000C918  0000              add [rax],al
0000C91A  0000              add [rax],al
0000C91C  0000              add [rax],al
0000C91E  0000              add [rax],al
0000C920  0000              add [rax],al
0000C922  0000              add [rax],al
0000C924  0000              add [rax],al
0000C926  0000              add [rax],al
0000C928  0000              add [rax],al
0000C92A  0000              add [rax],al
0000C92C  0000              add [rax],al
0000C92E  0000              add [rax],al
0000C930  0000              add [rax],al
0000C932  0000              add [rax],al
0000C934  0000              add [rax],al
0000C936  0000              add [rax],al
0000C938  0000              add [rax],al
0000C93A  0000              add [rax],al
0000C93C  0000              add [rax],al
0000C93E  0000              add [rax],al
0000C940  0000              add [rax],al
0000C942  0000              add [rax],al
0000C944  0000              add [rax],al
0000C946  0000              add [rax],al
0000C948  0000              add [rax],al
0000C94A  0000              add [rax],al
0000C94C  0000              add [rax],al
0000C94E  0000              add [rax],al
0000C950  0000              add [rax],al
0000C952  0000              add [rax],al
0000C954  0000              add [rax],al
0000C956  0000              add [rax],al
0000C958  0000              add [rax],al
0000C95A  0000              add [rax],al
0000C95C  0000              add [rax],al
0000C95E  0000              add [rax],al
0000C960  0000              add [rax],al
0000C962  0000              add [rax],al
0000C964  0000              add [rax],al
0000C966  0000              add [rax],al
0000C968  0000              add [rax],al
0000C96A  0000              add [rax],al
0000C96C  0000              add [rax],al
0000C96E  0000              add [rax],al
0000C970  0000              add [rax],al
0000C972  0000              add [rax],al
0000C974  0000              add [rax],al
0000C976  0000              add [rax],al
0000C978  0000              add [rax],al
0000C97A  0000              add [rax],al
0000C97C  0000              add [rax],al
0000C97E  0000              add [rax],al
0000C980  0000              add [rax],al
0000C982  0000              add [rax],al
0000C984  0000              add [rax],al
0000C986  0000              add [rax],al
0000C988  0000              add [rax],al
0000C98A  0000              add [rax],al
0000C98C  0000              add [rax],al
0000C98E  0000              add [rax],al
0000C990  0000              add [rax],al
0000C992  0000              add [rax],al
0000C994  0000              add [rax],al
0000C996  0000              add [rax],al
0000C998  0000              add [rax],al
0000C99A  0000              add [rax],al
0000C99C  0000              add [rax],al
0000C99E  0000              add [rax],al
0000C9A0  0000              add [rax],al
0000C9A2  0000              add [rax],al
0000C9A4  0000              add [rax],al
0000C9A6  0000              add [rax],al
0000C9A8  0000              add [rax],al
0000C9AA  0000              add [rax],al
0000C9AC  0000              add [rax],al
0000C9AE  0000              add [rax],al
0000C9B0  0000              add [rax],al
0000C9B2  0000              add [rax],al
0000C9B4  0000              add [rax],al
0000C9B6  0000              add [rax],al
0000C9B8  0000              add [rax],al
0000C9BA  0000              add [rax],al
0000C9BC  0000              add [rax],al
0000C9BE  0000              add [rax],al
0000C9C0  0000              add [rax],al
0000C9C2  0000              add [rax],al
0000C9C4  0000              add [rax],al
0000C9C6  0000              add [rax],al
0000C9C8  0000              add [rax],al
0000C9CA  0000              add [rax],al
0000C9CC  0000              add [rax],al
0000C9CE  0000              add [rax],al
0000C9D0  0000              add [rax],al
0000C9D2  0000              add [rax],al
0000C9D4  0000              add [rax],al
0000C9D6  0000              add [rax],al
0000C9D8  0000              add [rax],al
0000C9DA  0000              add [rax],al
0000C9DC  0000              add [rax],al
0000C9DE  0000              add [rax],al
0000C9E0  0000              add [rax],al
0000C9E2  0000              add [rax],al
0000C9E4  0000              add [rax],al
0000C9E6  0000              add [rax],al
0000C9E8  0000              add [rax],al
0000C9EA  0000              add [rax],al
0000C9EC  0000              add [rax],al
0000C9EE  0000              add [rax],al
0000C9F0  0000              add [rax],al
0000C9F2  0000              add [rax],al
0000C9F4  0000              add [rax],al
0000C9F6  0000              add [rax],al
0000C9F8  0000              add [rax],al
0000C9FA  0000              add [rax],al
0000C9FC  0000              add [rax],al
0000C9FE  0000              add [rax],al
0000CA00  0000              add [rax],al
0000CA02  0000              add [rax],al
0000CA04  0000              add [rax],al
0000CA06  0000              add [rax],al
0000CA08  0000              add [rax],al
0000CA0A  0000              add [rax],al
0000CA0C  0000              add [rax],al
0000CA0E  0000              add [rax],al
0000CA10  0000              add [rax],al
0000CA12  0000              add [rax],al
0000CA14  0000              add [rax],al
0000CA16  0000              add [rax],al
0000CA18  0000              add [rax],al
0000CA1A  0000              add [rax],al
0000CA1C  0000              add [rax],al
0000CA1E  0000              add [rax],al
0000CA20  0000              add [rax],al
0000CA22  0000              add [rax],al
0000CA24  0000              add [rax],al
0000CA26  0000              add [rax],al
0000CA28  0000              add [rax],al
0000CA2A  0000              add [rax],al
0000CA2C  0000              add [rax],al
0000CA2E  0000              add [rax],al
0000CA30  0000              add [rax],al
0000CA32  0000              add [rax],al
0000CA34  0000              add [rax],al
0000CA36  0000              add [rax],al
0000CA38  0000              add [rax],al
0000CA3A  0000              add [rax],al
0000CA3C  0000              add [rax],al
0000CA3E  0000              add [rax],al
0000CA40  0000              add [rax],al
0000CA42  0000              add [rax],al
0000CA44  0000              add [rax],al
0000CA46  0000              add [rax],al
0000CA48  0000              add [rax],al
0000CA4A  0000              add [rax],al
0000CA4C  0000              add [rax],al
0000CA4E  0000              add [rax],al
0000CA50  0000              add [rax],al
0000CA52  0000              add [rax],al
0000CA54  0000              add [rax],al
0000CA56  0000              add [rax],al
0000CA58  0000              add [rax],al
0000CA5A  0000              add [rax],al
0000CA5C  0000              add [rax],al
0000CA5E  0000              add [rax],al
0000CA60  0000              add [rax],al
0000CA62  0000              add [rax],al
0000CA64  0000              add [rax],al
0000CA66  0000              add [rax],al
0000CA68  0000              add [rax],al
0000CA6A  0000              add [rax],al
0000CA6C  0000              add [rax],al
0000CA6E  0000              add [rax],al
0000CA70  0000              add [rax],al
0000CA72  0000              add [rax],al
0000CA74  0000              add [rax],al
0000CA76  0000              add [rax],al
0000CA78  0000              add [rax],al
0000CA7A  0000              add [rax],al
0000CA7C  0000              add [rax],al
0000CA7E  0000              add [rax],al
0000CA80  0000              add [rax],al
0000CA82  0000              add [rax],al
0000CA84  0000              add [rax],al
0000CA86  0000              add [rax],al
0000CA88  0000              add [rax],al
0000CA8A  0000              add [rax],al
0000CA8C  0000              add [rax],al
0000CA8E  0000              add [rax],al
0000CA90  0000              add [rax],al
0000CA92  0000              add [rax],al
0000CA94  0000              add [rax],al
0000CA96  0000              add [rax],al
0000CA98  0000              add [rax],al
0000CA9A  0000              add [rax],al
0000CA9C  0000              add [rax],al
0000CA9E  0000              add [rax],al
0000CAA0  0000              add [rax],al
0000CAA2  0000              add [rax],al
0000CAA4  0000              add [rax],al
0000CAA6  0000              add [rax],al
0000CAA8  0000              add [rax],al
0000CAAA  0000              add [rax],al
0000CAAC  0000              add [rax],al
0000CAAE  0000              add [rax],al
0000CAB0  0000              add [rax],al
0000CAB2  0000              add [rax],al
0000CAB4  0000              add [rax],al
0000CAB6  0000              add [rax],al
0000CAB8  0000              add [rax],al
0000CABA  0000              add [rax],al
0000CABC  0000              add [rax],al
0000CABE  0000              add [rax],al
0000CAC0  0000              add [rax],al
0000CAC2  0000              add [rax],al
0000CAC4  0000              add [rax],al
0000CAC6  0000              add [rax],al
0000CAC8  0000              add [rax],al
0000CACA  0000              add [rax],al
0000CACC  0000              add [rax],al
0000CACE  0000              add [rax],al
0000CAD0  0000              add [rax],al
0000CAD2  0000              add [rax],al
0000CAD4  0000              add [rax],al
0000CAD6  0000              add [rax],al
0000CAD8  0000              add [rax],al
0000CADA  0000              add [rax],al
0000CADC  0000              add [rax],al
0000CADE  0000              add [rax],al
0000CAE0  0000              add [rax],al
0000CAE2  0000              add [rax],al
0000CAE4  0000              add [rax],al
0000CAE6  0000              add [rax],al
0000CAE8  0000              add [rax],al
0000CAEA  0000              add [rax],al
0000CAEC  0000              add [rax],al
0000CAEE  0000              add [rax],al
0000CAF0  0000              add [rax],al
0000CAF2  0000              add [rax],al
0000CAF4  0000              add [rax],al
0000CAF6  0000              add [rax],al
0000CAF8  0000              add [rax],al
0000CAFA  0000              add [rax],al
0000CAFC  0000              add [rax],al
0000CAFE  0000              add [rax],al
0000CB00  0000              add [rax],al
0000CB02  0000              add [rax],al
0000CB04  0000              add [rax],al
0000CB06  0000              add [rax],al
0000CB08  0000              add [rax],al
0000CB0A  0000              add [rax],al
0000CB0C  0000              add [rax],al
0000CB0E  0000              add [rax],al
0000CB10  0000              add [rax],al
0000CB12  0000              add [rax],al
0000CB14  0000              add [rax],al
0000CB16  0000              add [rax],al
0000CB18  0000              add [rax],al
0000CB1A  0000              add [rax],al
0000CB1C  0000              add [rax],al
0000CB1E  0000              add [rax],al
0000CB20  0000              add [rax],al
0000CB22  0000              add [rax],al
0000CB24  0000              add [rax],al
0000CB26  0000              add [rax],al
0000CB28  0000              add [rax],al
0000CB2A  0000              add [rax],al
0000CB2C  0000              add [rax],al
0000CB2E  0000              add [rax],al
0000CB30  0000              add [rax],al
0000CB32  0000              add [rax],al
0000CB34  0000              add [rax],al
0000CB36  0000              add [rax],al
0000CB38  0000              add [rax],al
0000CB3A  0000              add [rax],al
0000CB3C  0000              add [rax],al
0000CB3E  0000              add [rax],al
0000CB40  0000              add [rax],al
0000CB42  0000              add [rax],al
0000CB44  0000              add [rax],al
0000CB46  0000              add [rax],al
0000CB48  0000              add [rax],al
0000CB4A  0000              add [rax],al
0000CB4C  0000              add [rax],al
0000CB4E  0000              add [rax],al
0000CB50  0000              add [rax],al
0000CB52  0000              add [rax],al
0000CB54  0000              add [rax],al
0000CB56  0000              add [rax],al
0000CB58  0000              add [rax],al
0000CB5A  0000              add [rax],al
0000CB5C  0000              add [rax],al
0000CB5E  0000              add [rax],al
0000CB60  0000              add [rax],al
0000CB62  0000              add [rax],al
0000CB64  0000              add [rax],al
0000CB66  0000              add [rax],al
0000CB68  0000              add [rax],al
0000CB6A  0000              add [rax],al
0000CB6C  0000              add [rax],al
0000CB6E  0000              add [rax],al
0000CB70  0000              add [rax],al
0000CB72  0000              add [rax],al
0000CB74  0000              add [rax],al
0000CB76  0000              add [rax],al
0000CB78  0000              add [rax],al
0000CB7A  0000              add [rax],al
0000CB7C  0000              add [rax],al
0000CB7E  0000              add [rax],al
0000CB80  0000              add [rax],al
0000CB82  0000              add [rax],al
0000CB84  0000              add [rax],al
0000CB86  0000              add [rax],al
0000CB88  0000              add [rax],al
0000CB8A  0000              add [rax],al
0000CB8C  0000              add [rax],al
0000CB8E  0000              add [rax],al
0000CB90  0000              add [rax],al
0000CB92  0000              add [rax],al
0000CB94  0000              add [rax],al
0000CB96  0000              add [rax],al
0000CB98  0000              add [rax],al
0000CB9A  0000              add [rax],al
0000CB9C  0000              add [rax],al
0000CB9E  0000              add [rax],al
0000CBA0  0000              add [rax],al
0000CBA2  0000              add [rax],al
0000CBA4  0000              add [rax],al
0000CBA6  0000              add [rax],al
0000CBA8  0000              add [rax],al
0000CBAA  0000              add [rax],al
0000CBAC  0000              add [rax],al
0000CBAE  0000              add [rax],al
0000CBB0  0000              add [rax],al
0000CBB2  0000              add [rax],al
0000CBB4  0000              add [rax],al
0000CBB6  0000              add [rax],al
0000CBB8  0000              add [rax],al
0000CBBA  0000              add [rax],al
0000CBBC  0000              add [rax],al
0000CBBE  0000              add [rax],al
0000CBC0  0000              add [rax],al
0000CBC2  0000              add [rax],al
0000CBC4  0000              add [rax],al
0000CBC6  0000              add [rax],al
0000CBC8  0000              add [rax],al
0000CBCA  0000              add [rax],al
0000CBCC  0000              add [rax],al
0000CBCE  0000              add [rax],al
0000CBD0  0000              add [rax],al
0000CBD2  0000              add [rax],al
0000CBD4  0000              add [rax],al
0000CBD6  0000              add [rax],al
0000CBD8  0000              add [rax],al
0000CBDA  0000              add [rax],al
0000CBDC  0000              add [rax],al
0000CBDE  0000              add [rax],al
0000CBE0  0000              add [rax],al
0000CBE2  0000              add [rax],al
0000CBE4  0000              add [rax],al
0000CBE6  0000              add [rax],al
0000CBE8  0000              add [rax],al
0000CBEA  0000              add [rax],al
0000CBEC  0000              add [rax],al
0000CBEE  0000              add [rax],al
0000CBF0  0000              add [rax],al
0000CBF2  0000              add [rax],al
0000CBF4  0000              add [rax],al
0000CBF6  0000              add [rax],al
0000CBF8  0000              add [rax],al
0000CBFA  0000              add [rax],al
0000CBFC  0000              add [rax],al
0000CBFE  0000              add [rax],al
0000CC00  0000              add [rax],al
0000CC02  0000              add [rax],al
0000CC04  0000              add [rax],al
0000CC06  0000              add [rax],al
0000CC08  0000              add [rax],al
0000CC0A  0000              add [rax],al
0000CC0C  0000              add [rax],al
0000CC0E  0000              add [rax],al
0000CC10  0000              add [rax],al
0000CC12  0000              add [rax],al
0000CC14  0000              add [rax],al
0000CC16  0000              add [rax],al
0000CC18  0000              add [rax],al
0000CC1A  0000              add [rax],al
0000CC1C  0000              add [rax],al
0000CC1E  0000              add [rax],al
0000CC20  0000              add [rax],al
0000CC22  0000              add [rax],al
0000CC24  0000              add [rax],al
0000CC26  0000              add [rax],al
0000CC28  0000              add [rax],al
0000CC2A  0000              add [rax],al
0000CC2C  0000              add [rax],al
0000CC2E  0000              add [rax],al
0000CC30  0000              add [rax],al
0000CC32  0000              add [rax],al
0000CC34  0000              add [rax],al
0000CC36  0000              add [rax],al
0000CC38  0000              add [rax],al
0000CC3A  0000              add [rax],al
0000CC3C  0000              add [rax],al
0000CC3E  0000              add [rax],al
0000CC40  0000              add [rax],al
0000CC42  0000              add [rax],al
0000CC44  0000              add [rax],al
0000CC46  0000              add [rax],al
0000CC48  0000              add [rax],al
0000CC4A  0000              add [rax],al
0000CC4C  0000              add [rax],al
0000CC4E  0000              add [rax],al
0000CC50  0000              add [rax],al
0000CC52  0000              add [rax],al
0000CC54  0000              add [rax],al
0000CC56  0000              add [rax],al
0000CC58  0000              add [rax],al
0000CC5A  0000              add [rax],al
0000CC5C  0000              add [rax],al
0000CC5E  0000              add [rax],al
0000CC60  0000              add [rax],al
0000CC62  0000              add [rax],al
0000CC64  0000              add [rax],al
0000CC66  0000              add [rax],al
0000CC68  0000              add [rax],al
0000CC6A  0000              add [rax],al
0000CC6C  0000              add [rax],al
0000CC6E  0000              add [rax],al
0000CC70  0000              add [rax],al
0000CC72  0000              add [rax],al
0000CC74  0000              add [rax],al
0000CC76  0000              add [rax],al
0000CC78  0000              add [rax],al
0000CC7A  0000              add [rax],al
0000CC7C  0000              add [rax],al
0000CC7E  0000              add [rax],al
0000CC80  0000              add [rax],al
0000CC82  0000              add [rax],al
0000CC84  0000              add [rax],al
0000CC86  0000              add [rax],al
0000CC88  0000              add [rax],al
0000CC8A  0000              add [rax],al
0000CC8C  0000              add [rax],al
0000CC8E  0000              add [rax],al
0000CC90  0000              add [rax],al
0000CC92  0000              add [rax],al
0000CC94  0000              add [rax],al
0000CC96  0000              add [rax],al
0000CC98  0000              add [rax],al
0000CC9A  0000              add [rax],al
0000CC9C  0000              add [rax],al
0000CC9E  0000              add [rax],al
0000CCA0  0000              add [rax],al
0000CCA2  0000              add [rax],al
0000CCA4  0000              add [rax],al
0000CCA6  0000              add [rax],al
0000CCA8  0000              add [rax],al
0000CCAA  0000              add [rax],al
0000CCAC  0000              add [rax],al
0000CCAE  0000              add [rax],al
0000CCB0  0000              add [rax],al
0000CCB2  0000              add [rax],al
0000CCB4  0000              add [rax],al
0000CCB6  0000              add [rax],al
0000CCB8  0000              add [rax],al
0000CCBA  0000              add [rax],al
0000CCBC  0000              add [rax],al
0000CCBE  0000              add [rax],al
0000CCC0  0000              add [rax],al
0000CCC2  0000              add [rax],al
0000CCC4  0000              add [rax],al
0000CCC6  0000              add [rax],al
0000CCC8  0000              add [rax],al
0000CCCA  0000              add [rax],al
0000CCCC  0000              add [rax],al
0000CCCE  0000              add [rax],al
0000CCD0  0000              add [rax],al
0000CCD2  0000              add [rax],al
0000CCD4  0000              add [rax],al
0000CCD6  0000              add [rax],al
0000CCD8  0000              add [rax],al
0000CCDA  0000              add [rax],al
0000CCDC  0000              add [rax],al
0000CCDE  0000              add [rax],al
0000CCE0  0000              add [rax],al
0000CCE2  0000              add [rax],al
0000CCE4  0000              add [rax],al
0000CCE6  0000              add [rax],al
0000CCE8  0000              add [rax],al
0000CCEA  0000              add [rax],al
0000CCEC  0000              add [rax],al
0000CCEE  0000              add [rax],al
0000CCF0  0000              add [rax],al
0000CCF2  0000              add [rax],al
0000CCF4  0000              add [rax],al
0000CCF6  0000              add [rax],al
0000CCF8  0000              add [rax],al
0000CCFA  0000              add [rax],al
0000CCFC  0000              add [rax],al
0000CCFE  0000              add [rax],al
0000CD00  0000              add [rax],al
0000CD02  0000              add [rax],al
0000CD04  0000              add [rax],al
0000CD06  0000              add [rax],al
0000CD08  0000              add [rax],al
0000CD0A  0000              add [rax],al
0000CD0C  0000              add [rax],al
0000CD0E  0000              add [rax],al
0000CD10  0000              add [rax],al
0000CD12  0000              add [rax],al
0000CD14  0000              add [rax],al
0000CD16  0000              add [rax],al
0000CD18  0000              add [rax],al
0000CD1A  0000              add [rax],al
0000CD1C  0000              add [rax],al
0000CD1E  0000              add [rax],al
0000CD20  0000              add [rax],al
0000CD22  0000              add [rax],al
0000CD24  0000              add [rax],al
0000CD26  0000              add [rax],al
0000CD28  0000              add [rax],al
0000CD2A  0000              add [rax],al
0000CD2C  0000              add [rax],al
0000CD2E  0000              add [rax],al
0000CD30  0000              add [rax],al
0000CD32  0000              add [rax],al
0000CD34  0000              add [rax],al
0000CD36  0000              add [rax],al
0000CD38  0000              add [rax],al
0000CD3A  0000              add [rax],al
0000CD3C  0000              add [rax],al
0000CD3E  0000              add [rax],al
0000CD40  0000              add [rax],al
0000CD42  0000              add [rax],al
0000CD44  0000              add [rax],al
0000CD46  0000              add [rax],al
0000CD48  0000              add [rax],al
0000CD4A  0000              add [rax],al
0000CD4C  0000              add [rax],al
0000CD4E  0000              add [rax],al
0000CD50  0000              add [rax],al
0000CD52  0000              add [rax],al
0000CD54  0000              add [rax],al
0000CD56  0000              add [rax],al
0000CD58  0000              add [rax],al
0000CD5A  0000              add [rax],al
0000CD5C  0000              add [rax],al
0000CD5E  0000              add [rax],al
0000CD60  0000              add [rax],al
0000CD62  0000              add [rax],al
0000CD64  0000              add [rax],al
0000CD66  0000              add [rax],al
0000CD68  0000              add [rax],al
0000CD6A  0000              add [rax],al
0000CD6C  0000              add [rax],al
0000CD6E  0000              add [rax],al
0000CD70  0000              add [rax],al
0000CD72  0000              add [rax],al
0000CD74  0000              add [rax],al
0000CD76  0000              add [rax],al
0000CD78  0000              add [rax],al
0000CD7A  0000              add [rax],al
0000CD7C  0000              add [rax],al
0000CD7E  0000              add [rax],al
0000CD80  0000              add [rax],al
0000CD82  0000              add [rax],al
0000CD84  0000              add [rax],al
0000CD86  0000              add [rax],al
0000CD88  0000              add [rax],al
0000CD8A  0000              add [rax],al
0000CD8C  0000              add [rax],al
0000CD8E  0000              add [rax],al
0000CD90  0000              add [rax],al
0000CD92  0000              add [rax],al
0000CD94  0000              add [rax],al
0000CD96  0000              add [rax],al
0000CD98  0000              add [rax],al
0000CD9A  0000              add [rax],al
0000CD9C  0000              add [rax],al
0000CD9E  0000              add [rax],al
0000CDA0  0000              add [rax],al
0000CDA2  0000              add [rax],al
0000CDA4  0000              add [rax],al
0000CDA6  0000              add [rax],al
0000CDA8  0000              add [rax],al
0000CDAA  0000              add [rax],al
0000CDAC  0000              add [rax],al
0000CDAE  0000              add [rax],al
0000CDB0  0000              add [rax],al
0000CDB2  0000              add [rax],al
0000CDB4  0000              add [rax],al
0000CDB6  0000              add [rax],al
0000CDB8  0000              add [rax],al
0000CDBA  0000              add [rax],al
0000CDBC  0000              add [rax],al
0000CDBE  0000              add [rax],al
0000CDC0  0000              add [rax],al
0000CDC2  0000              add [rax],al
0000CDC4  0000              add [rax],al
0000CDC6  0000              add [rax],al
0000CDC8  0000              add [rax],al
0000CDCA  0000              add [rax],al
0000CDCC  0000              add [rax],al
0000CDCE  0000              add [rax],al
0000CDD0  0000              add [rax],al
0000CDD2  0000              add [rax],al
0000CDD4  0000              add [rax],al
0000CDD6  0000              add [rax],al
0000CDD8  0000              add [rax],al
0000CDDA  0000              add [rax],al
0000CDDC  0000              add [rax],al
0000CDDE  0000              add [rax],al
0000CDE0  0000              add [rax],al
0000CDE2  0000              add [rax],al
0000CDE4  0000              add [rax],al
0000CDE6  0000              add [rax],al
0000CDE8  0000              add [rax],al
0000CDEA  0000              add [rax],al
0000CDEC  0000              add [rax],al
0000CDEE  0000              add [rax],al
0000CDF0  0000              add [rax],al
0000CDF2  0000              add [rax],al
0000CDF4  0000              add [rax],al
0000CDF6  0000              add [rax],al
0000CDF8  0000              add [rax],al
0000CDFA  0000              add [rax],al
0000CDFC  0000              add [rax],al
0000CDFE  0000              add [rax],al
0000CE00  0000              add [rax],al
0000CE02  0000              add [rax],al
0000CE04  0000              add [rax],al
0000CE06  0000              add [rax],al
0000CE08  0000              add [rax],al
0000CE0A  0000              add [rax],al
0000CE0C  0000              add [rax],al
0000CE0E  0000              add [rax],al
0000CE10  0000              add [rax],al
0000CE12  0000              add [rax],al
0000CE14  0000              add [rax],al
0000CE16  0000              add [rax],al
0000CE18  0000              add [rax],al
0000CE1A  0000              add [rax],al
0000CE1C  0000              add [rax],al
0000CE1E  0000              add [rax],al
0000CE20  0000              add [rax],al
0000CE22  0000              add [rax],al
0000CE24  0000              add [rax],al
0000CE26  0000              add [rax],al
0000CE28  0000              add [rax],al
0000CE2A  0000              add [rax],al
0000CE2C  0000              add [rax],al
0000CE2E  0000              add [rax],al
0000CE30  0000              add [rax],al
0000CE32  0000              add [rax],al
0000CE34  0000              add [rax],al
0000CE36  0000              add [rax],al
0000CE38  0000              add [rax],al
0000CE3A  0000              add [rax],al
0000CE3C  0000              add [rax],al
0000CE3E  0000              add [rax],al
0000CE40  0000              add [rax],al
0000CE42  0000              add [rax],al
0000CE44  0000              add [rax],al
0000CE46  0000              add [rax],al
0000CE48  0000              add [rax],al
0000CE4A  0000              add [rax],al
0000CE4C  0000              add [rax],al
0000CE4E  0000              add [rax],al
0000CE50  0000              add [rax],al
0000CE52  0000              add [rax],al
0000CE54  0000              add [rax],al
0000CE56  0000              add [rax],al
0000CE58  0000              add [rax],al
0000CE5A  0000              add [rax],al
0000CE5C  0000              add [rax],al
0000CE5E  0000              add [rax],al
0000CE60  0000              add [rax],al
0000CE62  0000              add [rax],al
0000CE64  0000              add [rax],al
0000CE66  0000              add [rax],al
0000CE68  0000              add [rax],al
0000CE6A  0000              add [rax],al
0000CE6C  0000              add [rax],al
0000CE6E  0000              add [rax],al
0000CE70  0000              add [rax],al
0000CE72  0000              add [rax],al
0000CE74  0000              add [rax],al
0000CE76  0000              add [rax],al
0000CE78  0000              add [rax],al
0000CE7A  0000              add [rax],al
0000CE7C  0000              add [rax],al
0000CE7E  0000              add [rax],al
0000CE80  0000              add [rax],al
0000CE82  0000              add [rax],al
0000CE84  0000              add [rax],al
0000CE86  0000              add [rax],al
0000CE88  0000              add [rax],al
0000CE8A  0000              add [rax],al
0000CE8C  0000              add [rax],al
0000CE8E  0000              add [rax],al
0000CE90  0000              add [rax],al
0000CE92  0000              add [rax],al
0000CE94  0000              add [rax],al
0000CE96  0000              add [rax],al
0000CE98  0000              add [rax],al
0000CE9A  0000              add [rax],al
0000CE9C  0000              add [rax],al
0000CE9E  0000              add [rax],al
0000CEA0  0000              add [rax],al
0000CEA2  0000              add [rax],al
0000CEA4  0000              add [rax],al
0000CEA6  0000              add [rax],al
0000CEA8  0000              add [rax],al
0000CEAA  0000              add [rax],al
0000CEAC  0000              add [rax],al
0000CEAE  0000              add [rax],al
0000CEB0  0000              add [rax],al
0000CEB2  0000              add [rax],al
0000CEB4  0000              add [rax],al
0000CEB6  0000              add [rax],al
0000CEB8  0000              add [rax],al
0000CEBA  0000              add [rax],al
0000CEBC  0000              add [rax],al
0000CEBE  0000              add [rax],al
0000CEC0  0000              add [rax],al
0000CEC2  0000              add [rax],al
0000CEC4  0000              add [rax],al
0000CEC6  0000              add [rax],al
0000CEC8  0000              add [rax],al
0000CECA  0000              add [rax],al
0000CECC  0000              add [rax],al
0000CECE  0000              add [rax],al
0000CED0  0000              add [rax],al
0000CED2  0000              add [rax],al
0000CED4  0000              add [rax],al
0000CED6  0000              add [rax],al
0000CED8  0000              add [rax],al
0000CEDA  0000              add [rax],al
0000CEDC  0000              add [rax],al
0000CEDE  0000              add [rax],al
0000CEE0  0000              add [rax],al
0000CEE2  0000              add [rax],al
0000CEE4  0000              add [rax],al
0000CEE6  0000              add [rax],al
0000CEE8  0000              add [rax],al
0000CEEA  0000              add [rax],al
0000CEEC  0000              add [rax],al
0000CEEE  0000              add [rax],al
0000CEF0  0000              add [rax],al
0000CEF2  0000              add [rax],al
0000CEF4  0000              add [rax],al
0000CEF6  0000              add [rax],al
0000CEF8  0000              add [rax],al
0000CEFA  0000              add [rax],al
0000CEFC  0000              add [rax],al
0000CEFE  0000              add [rax],al
0000CF00  0000              add [rax],al
0000CF02  0000              add [rax],al
0000CF04  0000              add [rax],al
0000CF06  0000              add [rax],al
0000CF08  0000              add [rax],al
0000CF0A  0000              add [rax],al
0000CF0C  0000              add [rax],al
0000CF0E  0000              add [rax],al
0000CF10  0000              add [rax],al
0000CF12  0000              add [rax],al
0000CF14  0000              add [rax],al
0000CF16  0000              add [rax],al
0000CF18  0000              add [rax],al
0000CF1A  0000              add [rax],al
0000CF1C  0000              add [rax],al
0000CF1E  0000              add [rax],al
0000CF20  0000              add [rax],al
0000CF22  0000              add [rax],al
0000CF24  0000              add [rax],al
0000CF26  0000              add [rax],al
0000CF28  0000              add [rax],al
0000CF2A  0000              add [rax],al
0000CF2C  0000              add [rax],al
0000CF2E  0000              add [rax],al
0000CF30  0000              add [rax],al
0000CF32  0000              add [rax],al
0000CF34  0000              add [rax],al
0000CF36  0000              add [rax],al
0000CF38  0000              add [rax],al
0000CF3A  0000              add [rax],al
0000CF3C  0000              add [rax],al
0000CF3E  0000              add [rax],al
0000CF40  0000              add [rax],al
0000CF42  0000              add [rax],al
0000CF44  0000              add [rax],al
0000CF46  0000              add [rax],al
0000CF48  0000              add [rax],al
0000CF4A  0000              add [rax],al
0000CF4C  0000              add [rax],al
0000CF4E  0000              add [rax],al
0000CF50  0000              add [rax],al
0000CF52  0000              add [rax],al
0000CF54  0000              add [rax],al
0000CF56  0000              add [rax],al
0000CF58  0000              add [rax],al
0000CF5A  0000              add [rax],al
0000CF5C  0000              add [rax],al
0000CF5E  0000              add [rax],al
0000CF60  0000              add [rax],al
0000CF62  0000              add [rax],al
0000CF64  0000              add [rax],al
0000CF66  0000              add [rax],al
0000CF68  0000              add [rax],al
0000CF6A  0000              add [rax],al
0000CF6C  0000              add [rax],al
0000CF6E  0000              add [rax],al
0000CF70  0000              add [rax],al
0000CF72  0000              add [rax],al
0000CF74  0000              add [rax],al
0000CF76  0000              add [rax],al
0000CF78  0000              add [rax],al
0000CF7A  0000              add [rax],al
0000CF7C  0000              add [rax],al
0000CF7E  0000              add [rax],al
0000CF80  0000              add [rax],al
0000CF82  0000              add [rax],al
0000CF84  0000              add [rax],al
0000CF86  0000              add [rax],al
0000CF88  0000              add [rax],al
0000CF8A  0000              add [rax],al
0000CF8C  0000              add [rax],al
0000CF8E  0000              add [rax],al
0000CF90  0000              add [rax],al
0000CF92  0000              add [rax],al
0000CF94  0000              add [rax],al
0000CF96  0000              add [rax],al
0000CF98  0000              add [rax],al
0000CF9A  0000              add [rax],al
0000CF9C  0000              add [rax],al
0000CF9E  0000              add [rax],al
0000CFA0  0000              add [rax],al
0000CFA2  0000              add [rax],al
0000CFA4  0000              add [rax],al
0000CFA6  0000              add [rax],al
0000CFA8  0000              add [rax],al
0000CFAA  0000              add [rax],al
0000CFAC  0000              add [rax],al
0000CFAE  0000              add [rax],al
0000CFB0  0000              add [rax],al
0000CFB2  0000              add [rax],al
0000CFB4  0000              add [rax],al
0000CFB6  0000              add [rax],al
0000CFB8  0000              add [rax],al
0000CFBA  0000              add [rax],al
0000CFBC  0000              add [rax],al
0000CFBE  0000              add [rax],al
0000CFC0  0000              add [rax],al
0000CFC2  0000              add [rax],al
0000CFC4  0000              add [rax],al
0000CFC6  0000              add [rax],al
0000CFC8  0000              add [rax],al
0000CFCA  0000              add [rax],al
0000CFCC  0000              add [rax],al
0000CFCE  0000              add [rax],al
0000CFD0  0000              add [rax],al
0000CFD2  0000              add [rax],al
0000CFD4  0000              add [rax],al
0000CFD6  0000              add [rax],al
0000CFD8  0000              add [rax],al
0000CFDA  0000              add [rax],al
0000CFDC  0000              add [rax],al
0000CFDE  0000              add [rax],al
0000CFE0  0000              add [rax],al
0000CFE2  0000              add [rax],al
0000CFE4  0000              add [rax],al
0000CFE6  0000              add [rax],al
0000CFE8  0000              add [rax],al
0000CFEA  0000              add [rax],al
0000CFEC  0000              add [rax],al
0000CFEE  0000              add [rax],al
0000CFF0  0000              add [rax],al
0000CFF2  0000              add [rax],al
0000CFF4  0000              add [rax],al
0000CFF6  0000              add [rax],al
0000CFF8  0000              add [rax],al
0000CFFA  0000              add [rax],al
0000CFFC  0000              add [rax],al
0000CFFE  0000              add [rax],al
0000D000  44E000            loopne 0xd003
0000D003  0000              add [rax],al
0000D005  0000              add [rax],al
0000D007  0055E0            add [rbp-0x20],dl
0000D00A  0000              add [rax],al
0000D00C  0000              add [rax],al
0000D00E  0000              add [rax],al
0000D010  5B                pop rbx
0000D011  E000              loopne 0xd013
0000D013  0000              add [rax],al
0000D015  0000              add [rax],al
0000D017  0072E0            add [rdx-0x20],dh
0000D01A  0000              add [rax],al
0000D01C  0000              add [rax],al
0000D01E  0000              add [rax],al
0000D020  7DE0              jnl 0xd002
0000D022  0000              add [rax],al
0000D024  0000              add [rax],al
0000D026  0000              add [rax],al
0000D028  94                xchg eax,esp
0000D029  E000              loopne 0xd02b
0000D02B  0000              add [rax],al
0000D02D  0000              add [rax],al
0000D02F  00A2E0000000      add [rdx+0xe0],ah
0000D035  0000              add [rax],al
0000D037  00B1E0000000      add [rcx+0xe0],dh
0000D03D  0000              add [rax],al
0000D03F  00C0              add al,al
0000D041  E000              loopne 0xd043
0000D043  0000              add [rax],al
0000D045  0000              add [rax],al
0000D047  00CD              add ch,cl
0000D049  E000              loopne 0xd04b
0000D04B  0000              add [rax],al
0000D04D  0000              add [rax],al
0000D04F  00E9              add cl,ch
0000D051  E000              loopne 0xd053
0000D053  0000              add [rax],al
0000D055  0000              add [rax],al
0000D057  00F1              add cl,dh
0000D059  E000              loopne 0xd05b
0000D05B  0000              add [rax],al
0000D05D  0000              add [rax],al
0000D05F  0005E1000000      add [rel 0xd146],al
0000D065  0000              add [rax],al
0000D067  0011              add [rcx],dl
0000D069  E100              loope 0xd06b
0000D06B  0000              add [rax],al
0000D06D  0000              add [rax],al
0000D06F  002A              add [rdx],ch
0000D071  E100              loope 0xd073
0000D073  0000              add [rax],al
0000D075  0000              add [rax],al
0000D077  0035E1000000      add [rel 0xd15e],dh
0000D07D  0000              add [rax],al
0000D07F  0047E1            add [rdi-0x1f],al
0000D082  0000              add [rax],al
0000D084  0000              add [rax],al
0000D086  0000              add [rax],al
0000D088  59                pop rcx
0000D089  E100              loope 0xd08b
0000D08B  0000              add [rax],al
0000D08D  0000              add [rax],al
0000D08F  0069E1            add [rcx-0x1f],ch
0000D092  0000              add [rax],al
0000D094  0000              add [rax],al
0000D096  0000              add [rax],al
0000D098  77E1              ja 0xd07b
0000D09A  0000              add [rax],al
0000D09C  0000              add [rax],al
0000D09E  0000              add [rax],al
0000D0A0  77E1              ja 0xd083
0000D0A2  0000              add [rax],al
0000D0A4  0000              add [rax],al
0000D0A6  0000              add [rax],al
0000D0A8  77E1              ja 0xd08b
0000D0AA  0000              add [rax],al
0000D0AC  0000              add [rax],al
0000D0AE  0000              add [rax],al
0000D0B0  77E1              ja 0xd093
0000D0B2  0000              add [rax],al
0000D0B4  0000              add [rax],al
0000D0B6  0000              add [rax],al
0000D0B8  77E1              ja 0xd09b
0000D0BA  0000              add [rax],al
0000D0BC  0000              add [rax],al
0000D0BE  0000              add [rax],al
0000D0C0  77E1              ja 0xd0a3
0000D0C2  0000              add [rax],al
0000D0C4  0000              add [rax],al
0000D0C6  0000              add [rax],al
0000D0C8  77E1              ja 0xd0ab
0000D0CA  0000              add [rax],al
0000D0CC  0000              add [rax],al
0000D0CE  0000              add [rax],al
0000D0D0  77E1              ja 0xd0b3
0000D0D2  0000              add [rax],al
0000D0D4  0000              add [rax],al
0000D0D6  0000              add [rax],al
0000D0D8  77E1              ja 0xd0bb
0000D0DA  0000              add [rax],al
0000D0DC  0000              add [rax],al
0000D0DE  0000              add [rax],al
0000D0E0  77E1              ja 0xd0c3
0000D0E2  0000              add [rax],al
0000D0E4  0000              add [rax],al
0000D0E6  0000              add [rax],al
0000D0E8  77E1              ja 0xd0cb
0000D0EA  0000              add [rax],al
0000D0EC  0000              add [rax],al
0000D0EE  0000              add [rax],al
0000D0F0  77E1              ja 0xd0d3
0000D0F2  0000              add [rax],al
0000D0F4  0000              add [rax],al
0000D0F6  0000              add [rax],al
0000D0F8  77E1              ja 0xd0db
0000D0FA  0000              add [rax],al
0000D0FC  0000              add [rax],al
0000D0FE  0000              add [rax],al
0000D100  0500000000        add eax,0x0
0000D105  0000              add [rax],al
0000D107  0000              add [rax],al
0000D109  0000              add [rax],al
0000D10B  0000              add [rax],al
0000D10D  0000              add [rax],al
0000D10F  0000              add [rax],al
0000D111  0000              add [rax],al
0000D113  0000              add [rax],al
0000D115  0000              add [rax],al
0000D117  0000              add [rax],al
0000D119  0000              add [rax],al
0000D11B  0000              add [rax],al
0000D11D  0000              add [rax],al
0000D11F  0000              add [rax],al
0000D121  0000              add [rax],al
0000D123  0000              add [rax],al
0000D125  0000              add [rax],al
0000D127  00F0              add al,dh
0000D129  01F6              add esi,esi
0000D12B  03A000000000      add esp,[rax+0x0]
0000D131  0000              add [rax],al
0000D133  0000              add [rax],al
0000D135  0000              add [rax],al
0000D137  0000              add [rax],al
0000D139  0000              add [rax],al
0000D13B  0000              add [rax],al
0000D13D  0000              add [rax],al
0000D13F  00F0              add al,dh
0000D141  01F6              add esi,esi
0000D143  03B000000000      add esi,[rax+0x0]
0000D149  0000              add [rax],al
0000D14B  0000              add [rax],al
0000D14D  0000              add [rax],al
0000D14F  0000              add [rax],al
0000D151  0000              add [rax],al
0000D153  0000              add [rax],al
0000D155  0000              add [rax],al
0000D157  007001            add [rax+0x1],dh
0000D15A  7003              jo 0xd15f
0000D15C  A000000000000000  mov al,[qword 0x0]
         -00
0000D165  0000              add [rax],al
0000D167  0000              add [rax],al
0000D169  0000              add [rax],al
0000D16B  0000              add [rax],al
0000D16D  0000              add [rax],al
0000D16F  007001            add [rax+0x1],dh
0000D172  7003              jo 0xd177
0000D174  B000              mov al,0x0
0000D176  0000              add [rax],al
0000D178  0000              add [rax],al
0000D17A  0000              add [rax],al
0000D17C  0000              add [rax],al
0000D17E  0000              add [rax],al
0000D180  0000              add [rax],al
0000D182  0000              add [rax],al
0000D184  0000              add [rax],al
0000D186  0000              add [rax],al
0000D188  0000              add [rax],al
0000D18A  0000              add [rax],al
0000D18C  0000              add [rax],al
0000D18E  0000              add [rax],al
0000D190  0000              add [rax],al
0000D192  0000              add [rax],al
0000D194  0000              add [rax],al
0000D196  0000              add [rax],al
0000D198  0000              add [rax],al
0000D19A  0000              add [rax],al
0000D19C  0000              add [rax],al
0000D19E  0000              add [rax],al
0000D1A0  0000              add [rax],al
0000D1A2  0000              add [rax],al
0000D1A4  0000              add [rax],al
0000D1A6  0000              add [rax],al
0000D1A8  0000              add [rax],al
0000D1AA  0000              add [rax],al
0000D1AC  0000              add [rax],al
0000D1AE  0000              add [rax],al
0000D1B0  0000              add [rax],al
0000D1B2  0000              add [rax],al
0000D1B4  0000              add [rax],al
0000D1B6  0000              add [rax],al
0000D1B8  0000              add [rax],al
0000D1BA  0000              add [rax],al
0000D1BC  0000              add [rax],al
0000D1BE  0000              add [rax],al
0000D1C0  0000              add [rax],al
0000D1C2  0000              add [rax],al
0000D1C4  0000              add [rax],al
0000D1C6  0000              add [rax],al
0000D1C8  0000              add [rax],al
0000D1CA  0000              add [rax],al
0000D1CC  0000              add [rax],al
0000D1CE  0000              add [rax],al
0000D1D0  0000              add [rax],al
0000D1D2  0000              add [rax],al
0000D1D4  0000              add [rax],al
0000D1D6  0000              add [rax],al
0000D1D8  0000              add [rax],al
0000D1DA  0000              add [rax],al
0000D1DC  0000              add [rax],al
0000D1DE  0000              add [rax],al
0000D1E0  0000              add [rax],al
0000D1E2  0000              add [rax],al
0000D1E4  0000              add [rax],al
0000D1E6  0000              add [rax],al
0000D1E8  0000              add [rax],al
0000D1EA  0000              add [rax],al
0000D1EC  0000              add [rax],al
0000D1EE  0000              add [rax],al
0000D1F0  0000              add [rax],al
0000D1F2  0000              add [rax],al
0000D1F4  0000              add [rax],al
0000D1F6  0000              add [rax],al
0000D1F8  0000              add [rax],al
0000D1FA  0000              add [rax],al
0000D1FC  0000              add [rax],al
0000D1FE  0000              add [rax],al
0000D200  0000              add [rax],al
0000D202  0000              add [rax],al
0000D204  0000              add [rax],al
0000D206  0000              add [rax],al
0000D208  0000              add [rax],al
0000D20A  0000              add [rax],al
0000D20C  0000              add [rax],al
0000D20E  0000              add [rax],al
0000D210  0000              add [rax],al
0000D212  0000              add [rax],al
0000D214  0000              add [rax],al
0000D216  0000              add [rax],al
0000D218  0000              add [rax],al
0000D21A  0000              add [rax],al
0000D21C  0000              add [rax],al
0000D21E  0000              add [rax],al
0000D220  0000              add [rax],al
0000D222  0000              add [rax],al
0000D224  0000              add [rax],al
0000D226  0000              add [rax],al
0000D228  0000              add [rax],al
0000D22A  0000              add [rax],al
0000D22C  0000              add [rax],al
0000D22E  0000              add [rax],al
0000D230  0000              add [rax],al
0000D232  0000              add [rax],al
0000D234  0000              add [rax],al
0000D236  0000              add [rax],al
0000D238  0000              add [rax],al
0000D23A  0000              add [rax],al
0000D23C  0000              add [rax],al
0000D23E  0000              add [rax],al
0000D240  0000              add [rax],al
0000D242  0000              add [rax],al
0000D244  0000              add [rax],al
0000D246  0000              add [rax],al
0000D248  0000              add [rax],al
0000D24A  0000              add [rax],al
0000D24C  0000              add [rax],al
0000D24E  0000              add [rax],al
0000D250  0000              add [rax],al
0000D252  0000              add [rax],al
0000D254  0000              add [rax],al
0000D256  0000              add [rax],al
0000D258  0000              add [rax],al
0000D25A  0000              add [rax],al
0000D25C  0000              add [rax],al
0000D25E  0000              add [rax],al
0000D260  0000              add [rax],al
0000D262  0000              add [rax],al
0000D264  0000              add [rax],al
0000D266  0000              add [rax],al
0000D268  0000              add [rax],al
0000D26A  0000              add [rax],al
0000D26C  0000              add [rax],al
0000D26E  0000              add [rax],al
0000D270  0000              add [rax],al
0000D272  0000              add [rax],al
0000D274  0000              add [rax],al
0000D276  0000              add [rax],al
0000D278  0000              add [rax],al
0000D27A  0000              add [rax],al
0000D27C  0000              add [rax],al
0000D27E  0000              add [rax],al
0000D280  0000              add [rax],al
0000D282  0000              add [rax],al
0000D284  0000              add [rax],al
0000D286  0000              add [rax],al
0000D288  0000              add [rax],al
0000D28A  0000              add [rax],al
0000D28C  0000              add [rax],al
0000D28E  0000              add [rax],al
0000D290  0000              add [rax],al
0000D292  0000              add [rax],al
0000D294  0000              add [rax],al
0000D296  0000              add [rax],al
0000D298  0000              add [rax],al
0000D29A  0000              add [rax],al
0000D29C  0000              add [rax],al
0000D29E  0000              add [rax],al
0000D2A0  0000              add [rax],al
0000D2A2  0000              add [rax],al
0000D2A4  0000              add [rax],al
0000D2A6  0000              add [rax],al
0000D2A8  0000              add [rax],al
0000D2AA  0000              add [rax],al
0000D2AC  0000              add [rax],al
0000D2AE  0000              add [rax],al
0000D2B0  0000              add [rax],al
0000D2B2  0000              add [rax],al
0000D2B4  0000              add [rax],al
0000D2B6  0000              add [rax],al
0000D2B8  0000              add [rax],al
0000D2BA  0000              add [rax],al
0000D2BC  0000              add [rax],al
0000D2BE  0000              add [rax],al
0000D2C0  0000              add [rax],al
0000D2C2  0000              add [rax],al
0000D2C4  0000              add [rax],al
0000D2C6  0000              add [rax],al
0000D2C8  0000              add [rax],al
0000D2CA  0000              add [rax],al
0000D2CC  0000              add [rax],al
0000D2CE  0000              add [rax],al
0000D2D0  0000              add [rax],al
0000D2D2  0000              add [rax],al
0000D2D4  0000              add [rax],al
0000D2D6  0000              add [rax],al
0000D2D8  0000              add [rax],al
0000D2DA  0000              add [rax],al
0000D2DC  0000              add [rax],al
0000D2DE  0000              add [rax],al
0000D2E0  0000              add [rax],al
0000D2E2  0000              add [rax],al
0000D2E4  0000              add [rax],al
0000D2E6  0000              add [rax],al
0000D2E8  0000              add [rax],al
0000D2EA  0000              add [rax],al
0000D2EC  0000              add [rax],al
0000D2EE  0000              add [rax],al
0000D2F0  0000              add [rax],al
0000D2F2  0000              add [rax],al
0000D2F4  0000              add [rax],al
0000D2F6  0000              add [rax],al
0000D2F8  0000              add [rax],al
0000D2FA  0000              add [rax],al
0000D2FC  0000              add [rax],al
0000D2FE  0000              add [rax],al
0000D300  0000              add [rax],al
0000D302  0000              add [rax],al
0000D304  0000              add [rax],al
0000D306  0000              add [rax],al
0000D308  0000              add [rax],al
0000D30A  0000              add [rax],al
0000D30C  0000              add [rax],al
0000D30E  0000              add [rax],al
0000D310  0000              add [rax],al
0000D312  0000              add [rax],al
0000D314  0000              add [rax],al
0000D316  0000              add [rax],al
0000D318  0000              add [rax],al
0000D31A  0000              add [rax],al
0000D31C  0000              add [rax],al
0000D31E  0000              add [rax],al
0000D320  0000              add [rax],al
0000D322  0000              add [rax],al
0000D324  0000              add [rax],al
0000D326  0000              add [rax],al
0000D328  0000              add [rax],al
0000D32A  0000              add [rax],al
0000D32C  0000              add [rax],al
0000D32E  0000              add [rax],al
0000D330  0000              add [rax],al
0000D332  0000              add [rax],al
0000D334  0000              add [rax],al
0000D336  0000              add [rax],al
0000D338  0000              add [rax],al
0000D33A  0000              add [rax],al
0000D33C  0000              add [rax],al
0000D33E  0000              add [rax],al
0000D340  0000              add [rax],al
0000D342  0000              add [rax],al
0000D344  0000              add [rax],al
0000D346  0000              add [rax],al
0000D348  0000              add [rax],al
0000D34A  0000              add [rax],al
0000D34C  0000              add [rax],al
0000D34E  0000              add [rax],al
0000D350  0000              add [rax],al
0000D352  0000              add [rax],al
0000D354  0000              add [rax],al
0000D356  0000              add [rax],al
0000D358  0000              add [rax],al
0000D35A  0000              add [rax],al
0000D35C  0000              add [rax],al
0000D35E  0000              add [rax],al
0000D360  0000              add [rax],al
0000D362  0000              add [rax],al
0000D364  0000              add [rax],al
0000D366  0000              add [rax],al
0000D368  0000              add [rax],al
0000D36A  0000              add [rax],al
0000D36C  0000              add [rax],al
0000D36E  0000              add [rax],al
0000D370  0000              add [rax],al
0000D372  0000              add [rax],al
0000D374  0000              add [rax],al
0000D376  0000              add [rax],al
0000D378  0000              add [rax],al
0000D37A  0000              add [rax],al
0000D37C  0000              add [rax],al
0000D37E  0000              add [rax],al
0000D380  0000              add [rax],al
0000D382  0000              add [rax],al
0000D384  0000              add [rax],al
0000D386  0000              add [rax],al
0000D388  0000              add [rax],al
0000D38A  0000              add [rax],al
0000D38C  0000              add [rax],al
0000D38E  0000              add [rax],al
0000D390  0000              add [rax],al
0000D392  0000              add [rax],al
0000D394  0000              add [rax],al
0000D396  0000              add [rax],al
0000D398  0000              add [rax],al
0000D39A  0000              add [rax],al
0000D39C  0000              add [rax],al
0000D39E  0000              add [rax],al
0000D3A0  0000              add [rax],al
0000D3A2  0000              add [rax],al
0000D3A4  0000              add [rax],al
0000D3A6  0000              add [rax],al
0000D3A8  0000              add [rax],al
0000D3AA  0000              add [rax],al
0000D3AC  0000              add [rax],al
0000D3AE  0000              add [rax],al
0000D3B0  0000              add [rax],al
0000D3B2  0000              add [rax],al
0000D3B4  0000              add [rax],al
0000D3B6  0000              add [rax],al
0000D3B8  0000              add [rax],al
0000D3BA  0000              add [rax],al
0000D3BC  0000              add [rax],al
0000D3BE  0000              add [rax],al
0000D3C0  0000              add [rax],al
0000D3C2  0000              add [rax],al
0000D3C4  0000              add [rax],al
0000D3C6  0000              add [rax],al
0000D3C8  0000              add [rax],al
0000D3CA  0000              add [rax],al
0000D3CC  0000              add [rax],al
0000D3CE  0000              add [rax],al
0000D3D0  0000              add [rax],al
0000D3D2  0000              add [rax],al
0000D3D4  0000              add [rax],al
0000D3D6  0000              add [rax],al
0000D3D8  0000              add [rax],al
0000D3DA  0000              add [rax],al
0000D3DC  0000              add [rax],al
0000D3DE  0000              add [rax],al
0000D3E0  0000              add [rax],al
0000D3E2  0000              add [rax],al
0000D3E4  0000              add [rax],al
0000D3E6  0000              add [rax],al
0000D3E8  0000              add [rax],al
0000D3EA  0000              add [rax],al
0000D3EC  0000              add [rax],al
0000D3EE  0000              add [rax],al
0000D3F0  0000              add [rax],al
0000D3F2  0000              add [rax],al
0000D3F4  0000              add [rax],al
0000D3F6  0000              add [rax],al
0000D3F8  0000              add [rax],al
0000D3FA  0000              add [rax],al
0000D3FC  0000              add [rax],al
0000D3FE  0000              add [rax],al
0000D400  0000              add [rax],al
0000D402  0000              add [rax],al
0000D404  0000              add [rax],al
0000D406  0000              add [rax],al
0000D408  0000              add [rax],al
0000D40A  0000              add [rax],al
0000D40C  0000              add [rax],al
0000D40E  0000              add [rax],al
0000D410  0000              add [rax],al
0000D412  0000              add [rax],al
0000D414  0000              add [rax],al
0000D416  0000              add [rax],al
0000D418  0000              add [rax],al
0000D41A  0000              add [rax],al
0000D41C  0000              add [rax],al
0000D41E  0000              add [rax],al
0000D420  0000              add [rax],al
0000D422  0000              add [rax],al
0000D424  0000              add [rax],al
0000D426  0000              add [rax],al
0000D428  0000              add [rax],al
0000D42A  0000              add [rax],al
0000D42C  0000              add [rax],al
0000D42E  0000              add [rax],al
0000D430  0000              add [rax],al
0000D432  0000              add [rax],al
0000D434  0000              add [rax],al
0000D436  0000              add [rax],al
0000D438  0000              add [rax],al
0000D43A  0000              add [rax],al
0000D43C  0000              add [rax],al
0000D43E  0000              add [rax],al
0000D440  0000              add [rax],al
0000D442  0000              add [rax],al
0000D444  0000              add [rax],al
0000D446  0000              add [rax],al
0000D448  0000              add [rax],al
0000D44A  0000              add [rax],al
0000D44C  0000              add [rax],al
0000D44E  0000              add [rax],al
0000D450  0000              add [rax],al
0000D452  0000              add [rax],al
0000D454  0000              add [rax],al
0000D456  0000              add [rax],al
0000D458  0000              add [rax],al
0000D45A  0000              add [rax],al
0000D45C  0000              add [rax],al
0000D45E  0000              add [rax],al
0000D460  0000              add [rax],al
0000D462  0000              add [rax],al
0000D464  0000              add [rax],al
0000D466  0000              add [rax],al
0000D468  0000              add [rax],al
0000D46A  0000              add [rax],al
0000D46C  0000              add [rax],al
0000D46E  0000              add [rax],al
0000D470  0000              add [rax],al
0000D472  0000              add [rax],al
0000D474  0000              add [rax],al
0000D476  0000              add [rax],al
0000D478  0000              add [rax],al
0000D47A  0000              add [rax],al
0000D47C  0000              add [rax],al
0000D47E  0000              add [rax],al
0000D480  0000              add [rax],al
0000D482  0000              add [rax],al
0000D484  0000              add [rax],al
0000D486  0000              add [rax],al
0000D488  0000              add [rax],al
0000D48A  0000              add [rax],al
0000D48C  0000              add [rax],al
0000D48E  0000              add [rax],al
0000D490  0000              add [rax],al
0000D492  0000              add [rax],al
0000D494  0000              add [rax],al
0000D496  0000              add [rax],al
0000D498  0000              add [rax],al
0000D49A  0000              add [rax],al
0000D49C  0000              add [rax],al
0000D49E  0000              add [rax],al
0000D4A0  0000              add [rax],al
0000D4A2  0000              add [rax],al
0000D4A4  0000              add [rax],al
0000D4A6  0000              add [rax],al
0000D4A8  0000              add [rax],al
0000D4AA  0000              add [rax],al
0000D4AC  0000              add [rax],al
0000D4AE  0000              add [rax],al
0000D4B0  0000              add [rax],al
0000D4B2  0000              add [rax],al
0000D4B4  0000              add [rax],al
0000D4B6  0000              add [rax],al
0000D4B8  0000              add [rax],al
0000D4BA  0000              add [rax],al
0000D4BC  0000              add [rax],al
0000D4BE  0000              add [rax],al
0000D4C0  0000              add [rax],al
0000D4C2  0000              add [rax],al
0000D4C4  0000              add [rax],al
0000D4C6  0000              add [rax],al
0000D4C8  0000              add [rax],al
0000D4CA  0000              add [rax],al
0000D4CC  0000              add [rax],al
0000D4CE  0000              add [rax],al
0000D4D0  0000              add [rax],al
0000D4D2  0000              add [rax],al
0000D4D4  0000              add [rax],al
0000D4D6  0000              add [rax],al
0000D4D8  0000              add [rax],al
0000D4DA  0000              add [rax],al
0000D4DC  0000              add [rax],al
0000D4DE  0000              add [rax],al
0000D4E0  0000              add [rax],al
0000D4E2  0000              add [rax],al
0000D4E4  0000              add [rax],al
0000D4E6  0000              add [rax],al
0000D4E8  0000              add [rax],al
0000D4EA  0000              add [rax],al
0000D4EC  0000              add [rax],al
0000D4EE  0000              add [rax],al
0000D4F0  0000              add [rax],al
0000D4F2  0000              add [rax],al
0000D4F4  0000              add [rax],al
0000D4F6  0000              add [rax],al
0000D4F8  0000              add [rax],al
0000D4FA  0000              add [rax],al
0000D4FC  0000              add [rax],al
0000D4FE  0000              add [rax],al
0000D500  0000              add [rax],al
0000D502  0000              add [rax],al
0000D504  0000              add [rax],al
0000D506  0000              add [rax],al
0000D508  0000              add [rax],al
0000D50A  0000              add [rax],al
0000D50C  0000              add [rax],al
0000D50E  0000              add [rax],al
0000D510  0000              add [rax],al
0000D512  0000              add [rax],al
0000D514  0000              add [rax],al
0000D516  0000              add [rax],al
0000D518  0000              add [rax],al
0000D51A  0000              add [rax],al
0000D51C  0000              add [rax],al
0000D51E  0000              add [rax],al
0000D520  0000              add [rax],al
0000D522  0000              add [rax],al
0000D524  0000              add [rax],al
0000D526  0000              add [rax],al
0000D528  0000              add [rax],al
0000D52A  0000              add [rax],al
0000D52C  0000              add [rax],al
0000D52E  0000              add [rax],al
0000D530  0000              add [rax],al
0000D532  0000              add [rax],al
0000D534  0000              add [rax],al
0000D536  0000              add [rax],al
0000D538  0000              add [rax],al
0000D53A  0000              add [rax],al
0000D53C  0000              add [rax],al
0000D53E  0000              add [rax],al
0000D540  0000              add [rax],al
0000D542  0000              add [rax],al
0000D544  0000              add [rax],al
0000D546  0000              add [rax],al
0000D548  0000              add [rax],al
0000D54A  0000              add [rax],al
0000D54C  0000              add [rax],al
0000D54E  0000              add [rax],al
0000D550  0000              add [rax],al
0000D552  0000              add [rax],al
0000D554  0000              add [rax],al
0000D556  0000              add [rax],al
0000D558  0000              add [rax],al
0000D55A  0000              add [rax],al
0000D55C  0000              add [rax],al
0000D55E  0000              add [rax],al
0000D560  0000              add [rax],al
0000D562  0000              add [rax],al
0000D564  0000              add [rax],al
0000D566  0000              add [rax],al
0000D568  0000              add [rax],al
0000D56A  0000              add [rax],al
0000D56C  0000              add [rax],al
0000D56E  0000              add [rax],al
0000D570  0000              add [rax],al
0000D572  0000              add [rax],al
0000D574  0000              add [rax],al
0000D576  0000              add [rax],al
0000D578  0000              add [rax],al
0000D57A  0000              add [rax],al
0000D57C  0000              add [rax],al
0000D57E  0000              add [rax],al
0000D580  0000              add [rax],al
0000D582  0000              add [rax],al
0000D584  0000              add [rax],al
0000D586  0000              add [rax],al
0000D588  0000              add [rax],al
0000D58A  0000              add [rax],al
0000D58C  0000              add [rax],al
0000D58E  0000              add [rax],al
0000D590  0000              add [rax],al
0000D592  0000              add [rax],al
0000D594  0000              add [rax],al
0000D596  0000              add [rax],al
0000D598  0000              add [rax],al
0000D59A  0000              add [rax],al
0000D59C  0000              add [rax],al
0000D59E  0000              add [rax],al
0000D5A0  0000              add [rax],al
0000D5A2  0000              add [rax],al
0000D5A4  0000              add [rax],al
0000D5A6  0000              add [rax],al
0000D5A8  0000              add [rax],al
0000D5AA  0000              add [rax],al
0000D5AC  0000              add [rax],al
0000D5AE  0000              add [rax],al
0000D5B0  0000              add [rax],al
0000D5B2  0000              add [rax],al
0000D5B4  0000              add [rax],al
0000D5B6  0000              add [rax],al
0000D5B8  0000              add [rax],al
0000D5BA  0000              add [rax],al
0000D5BC  0000              add [rax],al
0000D5BE  0000              add [rax],al
0000D5C0  0000              add [rax],al
0000D5C2  0000              add [rax],al
0000D5C4  0000              add [rax],al
0000D5C6  0000              add [rax],al
0000D5C8  0000              add [rax],al
0000D5CA  0000              add [rax],al
0000D5CC  0000              add [rax],al
0000D5CE  0000              add [rax],al
0000D5D0  0000              add [rax],al
0000D5D2  0000              add [rax],al
0000D5D4  0000              add [rax],al
0000D5D6  0000              add [rax],al
0000D5D8  0000              add [rax],al
0000D5DA  0000              add [rax],al
0000D5DC  0000              add [rax],al
0000D5DE  0000              add [rax],al
0000D5E0  0000              add [rax],al
0000D5E2  0000              add [rax],al
0000D5E4  0000              add [rax],al
0000D5E6  0000              add [rax],al
0000D5E8  0000              add [rax],al
0000D5EA  0000              add [rax],al
0000D5EC  0000              add [rax],al
0000D5EE  0000              add [rax],al
0000D5F0  0000              add [rax],al
0000D5F2  0000              add [rax],al
0000D5F4  0000              add [rax],al
0000D5F6  0000              add [rax],al
0000D5F8  0000              add [rax],al
0000D5FA  0000              add [rax],al
0000D5FC  0000              add [rax],al
0000D5FE  0000              add [rax],al
0000D600  0000              add [rax],al
0000D602  0000              add [rax],al
0000D604  0000              add [rax],al
0000D606  0000              add [rax],al
0000D608  0000              add [rax],al
0000D60A  0000              add [rax],al
0000D60C  0000              add [rax],al
0000D60E  0000              add [rax],al
0000D610  0000              add [rax],al
0000D612  0000              add [rax],al
0000D614  0000              add [rax],al
0000D616  0000              add [rax],al
0000D618  0000              add [rax],al
0000D61A  0000              add [rax],al
0000D61C  0000              add [rax],al
0000D61E  0000              add [rax],al
0000D620  0000              add [rax],al
0000D622  0000              add [rax],al
0000D624  0000              add [rax],al
0000D626  0000              add [rax],al
0000D628  0000              add [rax],al
0000D62A  0000              add [rax],al
0000D62C  0000              add [rax],al
0000D62E  0000              add [rax],al
0000D630  0000              add [rax],al
0000D632  0000              add [rax],al
0000D634  0000              add [rax],al
0000D636  0000              add [rax],al
0000D638  0000              add [rax],al
0000D63A  0000              add [rax],al
0000D63C  0000              add [rax],al
0000D63E  0000              add [rax],al
0000D640  0000              add [rax],al
0000D642  0000              add [rax],al
0000D644  0000              add [rax],al
0000D646  0000              add [rax],al
0000D648  0000              add [rax],al
0000D64A  0000              add [rax],al
0000D64C  0000              add [rax],al
0000D64E  0000              add [rax],al
0000D650  0000              add [rax],al
0000D652  0000              add [rax],al
0000D654  0000              add [rax],al
0000D656  0000              add [rax],al
0000D658  0000              add [rax],al
0000D65A  0000              add [rax],al
0000D65C  0000              add [rax],al
0000D65E  0000              add [rax],al
0000D660  0000              add [rax],al
0000D662  0000              add [rax],al
0000D664  0000              add [rax],al
0000D666  0000              add [rax],al
0000D668  0000              add [rax],al
0000D66A  0000              add [rax],al
0000D66C  0000              add [rax],al
0000D66E  0000              add [rax],al
0000D670  0000              add [rax],al
0000D672  0000              add [rax],al
0000D674  0000              add [rax],al
0000D676  0000              add [rax],al
0000D678  0000              add [rax],al
0000D67A  0000              add [rax],al
0000D67C  0000              add [rax],al
0000D67E  0000              add [rax],al
0000D680  0000              add [rax],al
0000D682  0000              add [rax],al
0000D684  0000              add [rax],al
0000D686  0000              add [rax],al
0000D688  0000              add [rax],al
0000D68A  0000              add [rax],al
0000D68C  0000              add [rax],al
0000D68E  0000              add [rax],al
0000D690  0000              add [rax],al
0000D692  0000              add [rax],al
0000D694  0000              add [rax],al
0000D696  0000              add [rax],al
0000D698  0000              add [rax],al
0000D69A  0000              add [rax],al
0000D69C  0000              add [rax],al
0000D69E  0000              add [rax],al
0000D6A0  0000              add [rax],al
0000D6A2  0000              add [rax],al
0000D6A4  0000              add [rax],al
0000D6A6  0000              add [rax],al
0000D6A8  0000              add [rax],al
0000D6AA  0000              add [rax],al
0000D6AC  0000              add [rax],al
0000D6AE  0000              add [rax],al
0000D6B0  0000              add [rax],al
0000D6B2  0000              add [rax],al
0000D6B4  0000              add [rax],al
0000D6B6  0000              add [rax],al
0000D6B8  0000              add [rax],al
0000D6BA  0000              add [rax],al
0000D6BC  0000              add [rax],al
0000D6BE  0000              add [rax],al
0000D6C0  0000              add [rax],al
0000D6C2  0000              add [rax],al
0000D6C4  0000              add [rax],al
0000D6C6  0000              add [rax],al
0000D6C8  0000              add [rax],al
0000D6CA  0000              add [rax],al
0000D6CC  0000              add [rax],al
0000D6CE  0000              add [rax],al
0000D6D0  0000              add [rax],al
0000D6D2  0000              add [rax],al
0000D6D4  0000              add [rax],al
0000D6D6  0000              add [rax],al
0000D6D8  0000              add [rax],al
0000D6DA  0000              add [rax],al
0000D6DC  0000              add [rax],al
0000D6DE  0000              add [rax],al
0000D6E0  0000              add [rax],al
0000D6E2  0000              add [rax],al
0000D6E4  0000              add [rax],al
0000D6E6  0000              add [rax],al
0000D6E8  0000              add [rax],al
0000D6EA  0000              add [rax],al
0000D6EC  0000              add [rax],al
0000D6EE  0000              add [rax],al
0000D6F0  0000              add [rax],al
0000D6F2  0000              add [rax],al
0000D6F4  0000              add [rax],al
0000D6F6  0000              add [rax],al
0000D6F8  0000              add [rax],al
0000D6FA  0000              add [rax],al
0000D6FC  0000              add [rax],al
0000D6FE  0000              add [rax],al
0000D700  0000              add [rax],al
0000D702  0000              add [rax],al
0000D704  0000              add [rax],al
0000D706  0000              add [rax],al
0000D708  0000              add [rax],al
0000D70A  0000              add [rax],al
0000D70C  0000              add [rax],al
0000D70E  0000              add [rax],al
0000D710  0000              add [rax],al
0000D712  0000              add [rax],al
0000D714  0000              add [rax],al
0000D716  0000              add [rax],al
0000D718  0000              add [rax],al
0000D71A  0000              add [rax],al
0000D71C  0000              add [rax],al
0000D71E  0000              add [rax],al
0000D720  0000              add [rax],al
0000D722  0000              add [rax],al
0000D724  0000              add [rax],al
0000D726  0000              add [rax],al
0000D728  0000              add [rax],al
0000D72A  0000              add [rax],al
0000D72C  0000              add [rax],al
0000D72E  0000              add [rax],al
0000D730  0000              add [rax],al
0000D732  0000              add [rax],al
0000D734  0000              add [rax],al
0000D736  0000              add [rax],al
0000D738  0000              add [rax],al
0000D73A  0000              add [rax],al
0000D73C  0000              add [rax],al
0000D73E  0000              add [rax],al
0000D740  0000              add [rax],al
0000D742  0000              add [rax],al
0000D744  0000              add [rax],al
0000D746  0000              add [rax],al
0000D748  0000              add [rax],al
0000D74A  0000              add [rax],al
0000D74C  0000              add [rax],al
0000D74E  0000              add [rax],al
0000D750  0000              add [rax],al
0000D752  0000              add [rax],al
0000D754  0000              add [rax],al
0000D756  0000              add [rax],al
0000D758  0000              add [rax],al
0000D75A  0000              add [rax],al
0000D75C  0000              add [rax],al
0000D75E  0000              add [rax],al
0000D760  0000              add [rax],al
0000D762  0000              add [rax],al
0000D764  0000              add [rax],al
0000D766  0000              add [rax],al
0000D768  0000              add [rax],al
0000D76A  0000              add [rax],al
0000D76C  0000              add [rax],al
0000D76E  0000              add [rax],al
0000D770  0000              add [rax],al
0000D772  0000              add [rax],al
0000D774  0000              add [rax],al
0000D776  0000              add [rax],al
0000D778  0000              add [rax],al
0000D77A  0000              add [rax],al
0000D77C  0000              add [rax],al
0000D77E  0000              add [rax],al
0000D780  0000              add [rax],al
0000D782  0000              add [rax],al
0000D784  0000              add [rax],al
0000D786  0000              add [rax],al
0000D788  0000              add [rax],al
0000D78A  0000              add [rax],al
0000D78C  0000              add [rax],al
0000D78E  0000              add [rax],al
0000D790  0000              add [rax],al
0000D792  0000              add [rax],al
0000D794  0000              add [rax],al
0000D796  0000              add [rax],al
0000D798  0000              add [rax],al
0000D79A  0000              add [rax],al
0000D79C  0000              add [rax],al
0000D79E  0000              add [rax],al
0000D7A0  0000              add [rax],al
0000D7A2  0000              add [rax],al
0000D7A4  0000              add [rax],al
0000D7A6  0000              add [rax],al
0000D7A8  0000              add [rax],al
0000D7AA  0000              add [rax],al
0000D7AC  0000              add [rax],al
0000D7AE  0000              add [rax],al
0000D7B0  0000              add [rax],al
0000D7B2  0000              add [rax],al
0000D7B4  0000              add [rax],al
0000D7B6  0000              add [rax],al
0000D7B8  0000              add [rax],al
0000D7BA  0000              add [rax],al
0000D7BC  0000              add [rax],al
0000D7BE  0000              add [rax],al
0000D7C0  0000              add [rax],al
0000D7C2  0000              add [rax],al
0000D7C4  0000              add [rax],al
0000D7C6  0000              add [rax],al
0000D7C8  0000              add [rax],al
0000D7CA  0000              add [rax],al
0000D7CC  0000              add [rax],al
0000D7CE  0000              add [rax],al
0000D7D0  0000              add [rax],al
0000D7D2  0000              add [rax],al
0000D7D4  0000              add [rax],al
0000D7D6  0000              add [rax],al
0000D7D8  0000              add [rax],al
0000D7DA  0000              add [rax],al
0000D7DC  0000              add [rax],al
0000D7DE  0000              add [rax],al
0000D7E0  0000              add [rax],al
0000D7E2  0000              add [rax],al
0000D7E4  0000              add [rax],al
0000D7E6  0000              add [rax],al
0000D7E8  0000              add [rax],al
0000D7EA  0000              add [rax],al
0000D7EC  0000              add [rax],al
0000D7EE  0000              add [rax],al
0000D7F0  0000              add [rax],al
0000D7F2  0000              add [rax],al
0000D7F4  0000              add [rax],al
0000D7F6  0000              add [rax],al
0000D7F8  0000              add [rax],al
0000D7FA  0000              add [rax],al
0000D7FC  0000              add [rax],al
0000D7FE  0000              add [rax],al
0000D800  0000              add [rax],al
0000D802  0000              add [rax],al
0000D804  0000              add [rax],al
0000D806  0000              add [rax],al
0000D808  0000              add [rax],al
0000D80A  0000              add [rax],al
0000D80C  0000              add [rax],al
0000D80E  0000              add [rax],al
0000D810  0000              add [rax],al
0000D812  0000              add [rax],al
0000D814  0000              add [rax],al
0000D816  0000              add [rax],al
0000D818  0000              add [rax],al
0000D81A  0000              add [rax],al
0000D81C  0000              add [rax],al
0000D81E  0000              add [rax],al
0000D820  0000              add [rax],al
0000D822  0000              add [rax],al
0000D824  0000              add [rax],al
0000D826  0000              add [rax],al
0000D828  0000              add [rax],al
0000D82A  0000              add [rax],al
0000D82C  0000              add [rax],al
0000D82E  0000              add [rax],al
0000D830  0000              add [rax],al
0000D832  0000              add [rax],al
0000D834  0000              add [rax],al
0000D836  0000              add [rax],al
0000D838  0000              add [rax],al
0000D83A  0000              add [rax],al
0000D83C  0000              add [rax],al
0000D83E  0000              add [rax],al
0000D840  0000              add [rax],al
0000D842  0000              add [rax],al
0000D844  0000              add [rax],al
0000D846  0000              add [rax],al
0000D848  0000              add [rax],al
0000D84A  0000              add [rax],al
0000D84C  0000              add [rax],al
0000D84E  0000              add [rax],al
0000D850  0000              add [rax],al
0000D852  0000              add [rax],al
0000D854  0000              add [rax],al
0000D856  0000              add [rax],al
0000D858  0000              add [rax],al
0000D85A  0000              add [rax],al
0000D85C  0000              add [rax],al
0000D85E  0000              add [rax],al
0000D860  0000              add [rax],al
0000D862  0000              add [rax],al
0000D864  0000              add [rax],al
0000D866  0000              add [rax],al
0000D868  0000              add [rax],al
0000D86A  0000              add [rax],al
0000D86C  0000              add [rax],al
0000D86E  0000              add [rax],al
0000D870  0000              add [rax],al
0000D872  0000              add [rax],al
0000D874  0000              add [rax],al
0000D876  0000              add [rax],al
0000D878  0000              add [rax],al
0000D87A  0000              add [rax],al
0000D87C  0000              add [rax],al
0000D87E  0000              add [rax],al
0000D880  0000              add [rax],al
0000D882  0000              add [rax],al
0000D884  0000              add [rax],al
0000D886  0000              add [rax],al
0000D888  0000              add [rax],al
0000D88A  0000              add [rax],al
0000D88C  0000              add [rax],al
0000D88E  0000              add [rax],al
0000D890  0000              add [rax],al
0000D892  0000              add [rax],al
0000D894  0000              add [rax],al
0000D896  0000              add [rax],al
0000D898  0000              add [rax],al
0000D89A  0000              add [rax],al
0000D89C  0000              add [rax],al
0000D89E  0000              add [rax],al
0000D8A0  0000              add [rax],al
0000D8A2  0000              add [rax],al
0000D8A4  0000              add [rax],al
0000D8A6  0000              add [rax],al
0000D8A8  0000              add [rax],al
0000D8AA  0000              add [rax],al
0000D8AC  0000              add [rax],al
0000D8AE  0000              add [rax],al
0000D8B0  0000              add [rax],al
0000D8B2  0000              add [rax],al
0000D8B4  0000              add [rax],al
0000D8B6  0000              add [rax],al
0000D8B8  0000              add [rax],al
0000D8BA  0000              add [rax],al
0000D8BC  0000              add [rax],al
0000D8BE  0000              add [rax],al
0000D8C0  0000              add [rax],al
0000D8C2  0000              add [rax],al
0000D8C4  0000              add [rax],al
0000D8C6  0000              add [rax],al
0000D8C8  0000              add [rax],al
0000D8CA  0000              add [rax],al
0000D8CC  0000              add [rax],al
0000D8CE  0000              add [rax],al
0000D8D0  0000              add [rax],al
0000D8D2  0000              add [rax],al
0000D8D4  0000              add [rax],al
0000D8D6  0000              add [rax],al
0000D8D8  0000              add [rax],al
0000D8DA  0000              add [rax],al
0000D8DC  0000              add [rax],al
0000D8DE  0000              add [rax],al
0000D8E0  0000              add [rax],al
0000D8E2  0000              add [rax],al
0000D8E4  0000              add [rax],al
0000D8E6  0000              add [rax],al
0000D8E8  0000              add [rax],al
0000D8EA  0000              add [rax],al
0000D8EC  0000              add [rax],al
0000D8EE  0000              add [rax],al
0000D8F0  0000              add [rax],al
0000D8F2  0000              add [rax],al
0000D8F4  0000              add [rax],al
0000D8F6  0000              add [rax],al
0000D8F8  0000              add [rax],al
0000D8FA  0000              add [rax],al
0000D8FC  0000              add [rax],al
0000D8FE  0000              add [rax],al
0000D900  0000              add [rax],al
0000D902  0000              add [rax],al
0000D904  0000              add [rax],al
0000D906  0000              add [rax],al
0000D908  0000              add [rax],al
0000D90A  0000              add [rax],al
0000D90C  0000              add [rax],al
0000D90E  0000              add [rax],al
0000D910  0000              add [rax],al
0000D912  0000              add [rax],al
0000D914  0000              add [rax],al
0000D916  0000              add [rax],al
0000D918  0000              add [rax],al
0000D91A  0000              add [rax],al
0000D91C  0000              add [rax],al
0000D91E  0000              add [rax],al
0000D920  0000              add [rax],al
0000D922  0000              add [rax],al
0000D924  0000              add [rax],al
0000D926  0000              add [rax],al
0000D928  0000              add [rax],al
0000D92A  0000              add [rax],al
0000D92C  0000              add [rax],al
0000D92E  0000              add [rax],al
0000D930  0000              add [rax],al
0000D932  0000              add [rax],al
0000D934  0000              add [rax],al
0000D936  0000              add [rax],al
0000D938  0000              add [rax],al
0000D93A  0000              add [rax],al
0000D93C  0000              add [rax],al
0000D93E  0000              add [rax],al
0000D940  0000              add [rax],al
0000D942  0000              add [rax],al
0000D944  0000              add [rax],al
0000D946  0000              add [rax],al
0000D948  0000              add [rax],al
0000D94A  0000              add [rax],al
0000D94C  0000              add [rax],al
0000D94E  0000              add [rax],al
0000D950  0000              add [rax],al
0000D952  0000              add [rax],al
0000D954  0000              add [rax],al
0000D956  0000              add [rax],al
0000D958  0000              add [rax],al
0000D95A  0000              add [rax],al
0000D95C  0000              add [rax],al
0000D95E  0000              add [rax],al
0000D960  0000              add [rax],al
0000D962  0000              add [rax],al
0000D964  0000              add [rax],al
0000D966  0000              add [rax],al
0000D968  0000              add [rax],al
0000D96A  0000              add [rax],al
0000D96C  0000              add [rax],al
0000D96E  0000              add [rax],al
0000D970  0000              add [rax],al
0000D972  0000              add [rax],al
0000D974  0000              add [rax],al
0000D976  0000              add [rax],al
0000D978  0000              add [rax],al
0000D97A  0000              add [rax],al
0000D97C  0000              add [rax],al
0000D97E  0000              add [rax],al
0000D980  0000              add [rax],al
0000D982  0000              add [rax],al
0000D984  0000              add [rax],al
0000D986  0000              add [rax],al
0000D988  0000              add [rax],al
0000D98A  0000              add [rax],al
0000D98C  0000              add [rax],al
0000D98E  0000              add [rax],al
0000D990  0000              add [rax],al
0000D992  0000              add [rax],al
0000D994  0000              add [rax],al
0000D996  0000              add [rax],al
0000D998  0000              add [rax],al
0000D99A  0000              add [rax],al
0000D99C  0000              add [rax],al
0000D99E  0000              add [rax],al
0000D9A0  0000              add [rax],al
0000D9A2  0000              add [rax],al
0000D9A4  0000              add [rax],al
0000D9A6  0000              add [rax],al
0000D9A8  0000              add [rax],al
0000D9AA  0000              add [rax],al
0000D9AC  0000              add [rax],al
0000D9AE  0000              add [rax],al
0000D9B0  0000              add [rax],al
0000D9B2  0000              add [rax],al
0000D9B4  0000              add [rax],al
0000D9B6  0000              add [rax],al
0000D9B8  0000              add [rax],al
0000D9BA  0000              add [rax],al
0000D9BC  0000              add [rax],al
0000D9BE  0000              add [rax],al
0000D9C0  0000              add [rax],al
0000D9C2  0000              add [rax],al
0000D9C4  0000              add [rax],al
0000D9C6  0000              add [rax],al
0000D9C8  0000              add [rax],al
0000D9CA  0000              add [rax],al
0000D9CC  0000              add [rax],al
0000D9CE  0000              add [rax],al
0000D9D0  0000              add [rax],al
0000D9D2  0000              add [rax],al
0000D9D4  0000              add [rax],al
0000D9D6  0000              add [rax],al
0000D9D8  0000              add [rax],al
0000D9DA  0000              add [rax],al
0000D9DC  0000              add [rax],al
0000D9DE  0000              add [rax],al
0000D9E0  0000              add [rax],al
0000D9E2  0000              add [rax],al
0000D9E4  0000              add [rax],al
0000D9E6  0000              add [rax],al
0000D9E8  0000              add [rax],al
0000D9EA  0000              add [rax],al
0000D9EC  0000              add [rax],al
0000D9EE  0000              add [rax],al
0000D9F0  0000              add [rax],al
0000D9F2  0000              add [rax],al
0000D9F4  0000              add [rax],al
0000D9F6  0000              add [rax],al
0000D9F8  0000              add [rax],al
0000D9FA  0000              add [rax],al
0000D9FC  0000              add [rax],al
0000D9FE  0000              add [rax],al
0000DA00  0000              add [rax],al
0000DA02  0000              add [rax],al
0000DA04  0000              add [rax],al
0000DA06  0000              add [rax],al
0000DA08  0000              add [rax],al
0000DA0A  0000              add [rax],al
0000DA0C  0000              add [rax],al
0000DA0E  0000              add [rax],al
0000DA10  0000              add [rax],al
0000DA12  0000              add [rax],al
0000DA14  0000              add [rax],al
0000DA16  0000              add [rax],al
0000DA18  0000              add [rax],al
0000DA1A  0000              add [rax],al
0000DA1C  0000              add [rax],al
0000DA1E  0000              add [rax],al
0000DA20  0000              add [rax],al
0000DA22  0000              add [rax],al
0000DA24  0000              add [rax],al
0000DA26  0000              add [rax],al
0000DA28  0000              add [rax],al
0000DA2A  0000              add [rax],al
0000DA2C  0000              add [rax],al
0000DA2E  0000              add [rax],al
0000DA30  0000              add [rax],al
0000DA32  0000              add [rax],al
0000DA34  0000              add [rax],al
0000DA36  0000              add [rax],al
0000DA38  0000              add [rax],al
0000DA3A  0000              add [rax],al
0000DA3C  0000              add [rax],al
0000DA3E  0000              add [rax],al
0000DA40  0000              add [rax],al
0000DA42  0000              add [rax],al
0000DA44  0000              add [rax],al
0000DA46  0000              add [rax],al
0000DA48  0000              add [rax],al
0000DA4A  0000              add [rax],al
0000DA4C  0000              add [rax],al
0000DA4E  0000              add [rax],al
0000DA50  0000              add [rax],al
0000DA52  0000              add [rax],al
0000DA54  0000              add [rax],al
0000DA56  0000              add [rax],al
0000DA58  0000              add [rax],al
0000DA5A  0000              add [rax],al
0000DA5C  0000              add [rax],al
0000DA5E  0000              add [rax],al
0000DA60  0000              add [rax],al
0000DA62  0000              add [rax],al
0000DA64  0000              add [rax],al
0000DA66  0000              add [rax],al
0000DA68  0000              add [rax],al
0000DA6A  0000              add [rax],al
0000DA6C  0000              add [rax],al
0000DA6E  0000              add [rax],al
0000DA70  0000              add [rax],al
0000DA72  0000              add [rax],al
0000DA74  0000              add [rax],al
0000DA76  0000              add [rax],al
0000DA78  0000              add [rax],al
0000DA7A  0000              add [rax],al
0000DA7C  0000              add [rax],al
0000DA7E  0000              add [rax],al
0000DA80  0000              add [rax],al
0000DA82  0000              add [rax],al
0000DA84  0000              add [rax],al
0000DA86  0000              add [rax],al
0000DA88  0000              add [rax],al
0000DA8A  0000              add [rax],al
0000DA8C  0000              add [rax],al
0000DA8E  0000              add [rax],al
0000DA90  0000              add [rax],al
0000DA92  0000              add [rax],al
0000DA94  0000              add [rax],al
0000DA96  0000              add [rax],al
0000DA98  0000              add [rax],al
0000DA9A  0000              add [rax],al
0000DA9C  0000              add [rax],al
0000DA9E  0000              add [rax],al
0000DAA0  0000              add [rax],al
0000DAA2  0000              add [rax],al
0000DAA4  0000              add [rax],al
0000DAA6  0000              add [rax],al
0000DAA8  0000              add [rax],al
0000DAAA  0000              add [rax],al
0000DAAC  0000              add [rax],al
0000DAAE  0000              add [rax],al
0000DAB0  0000              add [rax],al
0000DAB2  0000              add [rax],al
0000DAB4  0000              add [rax],al
0000DAB6  0000              add [rax],al
0000DAB8  0000              add [rax],al
0000DABA  0000              add [rax],al
0000DABC  0000              add [rax],al
0000DABE  0000              add [rax],al
0000DAC0  0000              add [rax],al
0000DAC2  0000              add [rax],al
0000DAC4  0000              add [rax],al
0000DAC6  0000              add [rax],al
0000DAC8  0000              add [rax],al
0000DACA  0000              add [rax],al
0000DACC  0000              add [rax],al
0000DACE  0000              add [rax],al
0000DAD0  0000              add [rax],al
0000DAD2  0000              add [rax],al
0000DAD4  0000              add [rax],al
0000DAD6  0000              add [rax],al
0000DAD8  0000              add [rax],al
0000DADA  0000              add [rax],al
0000DADC  0000              add [rax],al
0000DADE  0000              add [rax],al
0000DAE0  0000              add [rax],al
0000DAE2  0000              add [rax],al
0000DAE4  0000              add [rax],al
0000DAE6  0000              add [rax],al
0000DAE8  0000              add [rax],al
0000DAEA  0000              add [rax],al
0000DAEC  0000              add [rax],al
0000DAEE  0000              add [rax],al
0000DAF0  0000              add [rax],al
0000DAF2  0000              add [rax],al
0000DAF4  0000              add [rax],al
0000DAF6  0000              add [rax],al
0000DAF8  0000              add [rax],al
0000DAFA  0000              add [rax],al
0000DAFC  0000              add [rax],al
0000DAFE  0000              add [rax],al
0000DB00  0000              add [rax],al
0000DB02  0000              add [rax],al
0000DB04  0000              add [rax],al
0000DB06  0000              add [rax],al
0000DB08  0000              add [rax],al
0000DB0A  0000              add [rax],al
0000DB0C  0000              add [rax],al
0000DB0E  0000              add [rax],al
0000DB10  0000              add [rax],al
0000DB12  0000              add [rax],al
0000DB14  0000              add [rax],al
0000DB16  0000              add [rax],al
0000DB18  0000              add [rax],al
0000DB1A  0000              add [rax],al
0000DB1C  0000              add [rax],al
0000DB1E  0000              add [rax],al
0000DB20  0000              add [rax],al
0000DB22  0000              add [rax],al
0000DB24  0000              add [rax],al
0000DB26  0000              add [rax],al
0000DB28  0000              add [rax],al
0000DB2A  0000              add [rax],al
0000DB2C  0000              add [rax],al
0000DB2E  0000              add [rax],al
0000DB30  0000              add [rax],al
0000DB32  0000              add [rax],al
0000DB34  0000              add [rax],al
0000DB36  0000              add [rax],al
0000DB38  0000              add [rax],al
0000DB3A  0000              add [rax],al
0000DB3C  0000              add [rax],al
0000DB3E  0000              add [rax],al
0000DB40  0000              add [rax],al
0000DB42  0000              add [rax],al
0000DB44  0000              add [rax],al
0000DB46  0000              add [rax],al
0000DB48  0000              add [rax],al
0000DB4A  0000              add [rax],al
0000DB4C  0000              add [rax],al
0000DB4E  0000              add [rax],al
0000DB50  0000              add [rax],al
0000DB52  0000              add [rax],al
0000DB54  0000              add [rax],al
0000DB56  0000              add [rax],al
0000DB58  0000              add [rax],al
0000DB5A  0000              add [rax],al
0000DB5C  0000              add [rax],al
0000DB5E  0000              add [rax],al
0000DB60  0000              add [rax],al
0000DB62  0000              add [rax],al
0000DB64  0000              add [rax],al
0000DB66  0000              add [rax],al
0000DB68  0000              add [rax],al
0000DB6A  0000              add [rax],al
0000DB6C  0000              add [rax],al
0000DB6E  0000              add [rax],al
0000DB70  0000              add [rax],al
0000DB72  0000              add [rax],al
0000DB74  0000              add [rax],al
0000DB76  0000              add [rax],al
0000DB78  0000              add [rax],al
0000DB7A  0000              add [rax],al
0000DB7C  0000              add [rax],al
0000DB7E  0000              add [rax],al
0000DB80  0000              add [rax],al
0000DB82  0000              add [rax],al
0000DB84  0000              add [rax],al
0000DB86  0000              add [rax],al
0000DB88  0000              add [rax],al
0000DB8A  0000              add [rax],al
0000DB8C  0000              add [rax],al
0000DB8E  0000              add [rax],al
0000DB90  0000              add [rax],al
0000DB92  0000              add [rax],al
0000DB94  0000              add [rax],al
0000DB96  0000              add [rax],al
0000DB98  0000              add [rax],al
0000DB9A  0000              add [rax],al
0000DB9C  0000              add [rax],al
0000DB9E  0000              add [rax],al
0000DBA0  0000              add [rax],al
0000DBA2  0000              add [rax],al
0000DBA4  0000              add [rax],al
0000DBA6  0000              add [rax],al
0000DBA8  0000              add [rax],al
0000DBAA  0000              add [rax],al
0000DBAC  0000              add [rax],al
0000DBAE  0000              add [rax],al
0000DBB0  0000              add [rax],al
0000DBB2  0000              add [rax],al
0000DBB4  0000              add [rax],al
0000DBB6  0000              add [rax],al
0000DBB8  0000              add [rax],al
0000DBBA  0000              add [rax],al
0000DBBC  0000              add [rax],al
0000DBBE  0000              add [rax],al
0000DBC0  0000              add [rax],al
0000DBC2  0000              add [rax],al
0000DBC4  0000              add [rax],al
0000DBC6  0000              add [rax],al
0000DBC8  0000              add [rax],al
0000DBCA  0000              add [rax],al
0000DBCC  0000              add [rax],al
0000DBCE  0000              add [rax],al
0000DBD0  0000              add [rax],al
0000DBD2  0000              add [rax],al
0000DBD4  0000              add [rax],al
0000DBD6  0000              add [rax],al
0000DBD8  0000              add [rax],al
0000DBDA  0000              add [rax],al
0000DBDC  0000              add [rax],al
0000DBDE  0000              add [rax],al
0000DBE0  0000              add [rax],al
0000DBE2  0000              add [rax],al
0000DBE4  0000              add [rax],al
0000DBE6  0000              add [rax],al
0000DBE8  0000              add [rax],al
0000DBEA  0000              add [rax],al
0000DBEC  0000              add [rax],al
0000DBEE  0000              add [rax],al
0000DBF0  0000              add [rax],al
0000DBF2  0000              add [rax],al
0000DBF4  0000              add [rax],al
0000DBF6  0000              add [rax],al
0000DBF8  0000              add [rax],al
0000DBFA  0000              add [rax],al
0000DBFC  0000              add [rax],al
0000DBFE  0000              add [rax],al
0000DC00  0000              add [rax],al
0000DC02  0000              add [rax],al
0000DC04  0000              add [rax],al
0000DC06  0000              add [rax],al
0000DC08  0000              add [rax],al
0000DC0A  0000              add [rax],al
0000DC0C  0000              add [rax],al
0000DC0E  0000              add [rax],al
0000DC10  0000              add [rax],al
0000DC12  0000              add [rax],al
0000DC14  0000              add [rax],al
0000DC16  0000              add [rax],al
0000DC18  0000              add [rax],al
0000DC1A  0000              add [rax],al
0000DC1C  0000              add [rax],al
0000DC1E  0000              add [rax],al
0000DC20  0000              add [rax],al
0000DC22  0000              add [rax],al
0000DC24  0000              add [rax],al
0000DC26  0000              add [rax],al
0000DC28  0000              add [rax],al
0000DC2A  0000              add [rax],al
0000DC2C  0000              add [rax],al
0000DC2E  0000              add [rax],al
0000DC30  0000              add [rax],al
0000DC32  0000              add [rax],al
0000DC34  0000              add [rax],al
0000DC36  0000              add [rax],al
0000DC38  0000              add [rax],al
0000DC3A  0000              add [rax],al
0000DC3C  0000              add [rax],al
0000DC3E  0000              add [rax],al
0000DC40  0000              add [rax],al
0000DC42  0000              add [rax],al
0000DC44  0000              add [rax],al
0000DC46  0000              add [rax],al
0000DC48  0000              add [rax],al
0000DC4A  0000              add [rax],al
0000DC4C  0000              add [rax],al
0000DC4E  0000              add [rax],al
0000DC50  0000              add [rax],al
0000DC52  0000              add [rax],al
0000DC54  0000              add [rax],al
0000DC56  0000              add [rax],al
0000DC58  0000              add [rax],al
0000DC5A  0000              add [rax],al
0000DC5C  0000              add [rax],al
0000DC5E  0000              add [rax],al
0000DC60  0000              add [rax],al
0000DC62  0000              add [rax],al
0000DC64  0000              add [rax],al
0000DC66  0000              add [rax],al
0000DC68  0000              add [rax],al
0000DC6A  0000              add [rax],al
0000DC6C  0000              add [rax],al
0000DC6E  0000              add [rax],al
0000DC70  0000              add [rax],al
0000DC72  0000              add [rax],al
0000DC74  0000              add [rax],al
0000DC76  0000              add [rax],al
0000DC78  0000              add [rax],al
0000DC7A  0000              add [rax],al
0000DC7C  0000              add [rax],al
0000DC7E  0000              add [rax],al
0000DC80  0000              add [rax],al
0000DC82  0000              add [rax],al
0000DC84  0000              add [rax],al
0000DC86  0000              add [rax],al
0000DC88  0000              add [rax],al
0000DC8A  0000              add [rax],al
0000DC8C  0000              add [rax],al
0000DC8E  0000              add [rax],al
0000DC90  0000              add [rax],al
0000DC92  0000              add [rax],al
0000DC94  0000              add [rax],al
0000DC96  0000              add [rax],al
0000DC98  0000              add [rax],al
0000DC9A  0000              add [rax],al
0000DC9C  0000              add [rax],al
0000DC9E  0000              add [rax],al
0000DCA0  0000              add [rax],al
0000DCA2  0000              add [rax],al
0000DCA4  0000              add [rax],al
0000DCA6  0000              add [rax],al
0000DCA8  0000              add [rax],al
0000DCAA  0000              add [rax],al
0000DCAC  0000              add [rax],al
0000DCAE  0000              add [rax],al
0000DCB0  0000              add [rax],al
0000DCB2  0000              add [rax],al
0000DCB4  0000              add [rax],al
0000DCB6  0000              add [rax],al
0000DCB8  0000              add [rax],al
0000DCBA  0000              add [rax],al
0000DCBC  0000              add [rax],al
0000DCBE  0000              add [rax],al
0000DCC0  0000              add [rax],al
0000DCC2  0000              add [rax],al
0000DCC4  0000              add [rax],al
0000DCC6  0000              add [rax],al
0000DCC8  0000              add [rax],al
0000DCCA  0000              add [rax],al
0000DCCC  0000              add [rax],al
0000DCCE  0000              add [rax],al
0000DCD0  0000              add [rax],al
0000DCD2  0000              add [rax],al
0000DCD4  0000              add [rax],al
0000DCD6  0000              add [rax],al
0000DCD8  0000              add [rax],al
0000DCDA  0000              add [rax],al
0000DCDC  0000              add [rax],al
0000DCDE  0000              add [rax],al
0000DCE0  0000              add [rax],al
0000DCE2  0000              add [rax],al
0000DCE4  0000              add [rax],al
0000DCE6  0000              add [rax],al
0000DCE8  0000              add [rax],al
0000DCEA  0000              add [rax],al
0000DCEC  0000              add [rax],al
0000DCEE  0000              add [rax],al
0000DCF0  0000              add [rax],al
0000DCF2  0000              add [rax],al
0000DCF4  0000              add [rax],al
0000DCF6  0000              add [rax],al
0000DCF8  0000              add [rax],al
0000DCFA  0000              add [rax],al
0000DCFC  0000              add [rax],al
0000DCFE  0000              add [rax],al
0000DD00  0000              add [rax],al
0000DD02  0000              add [rax],al
0000DD04  0000              add [rax],al
0000DD06  0000              add [rax],al
0000DD08  0000              add [rax],al
0000DD0A  0000              add [rax],al
0000DD0C  0000              add [rax],al
0000DD0E  0000              add [rax],al
0000DD10  0000              add [rax],al
0000DD12  0000              add [rax],al
0000DD14  0000              add [rax],al
0000DD16  0000              add [rax],al
0000DD18  0000              add [rax],al
0000DD1A  0000              add [rax],al
0000DD1C  0000              add [rax],al
0000DD1E  0000              add [rax],al
0000DD20  0000              add [rax],al
0000DD22  0000              add [rax],al
0000DD24  0000              add [rax],al
0000DD26  0000              add [rax],al
0000DD28  0000              add [rax],al
0000DD2A  0000              add [rax],al
0000DD2C  0000              add [rax],al
0000DD2E  0000              add [rax],al
0000DD30  0000              add [rax],al
0000DD32  0000              add [rax],al
0000DD34  0000              add [rax],al
0000DD36  0000              add [rax],al
0000DD38  0000              add [rax],al
0000DD3A  0000              add [rax],al
0000DD3C  0000              add [rax],al
0000DD3E  0000              add [rax],al
0000DD40  0000              add [rax],al
0000DD42  0000              add [rax],al
0000DD44  0000              add [rax],al
0000DD46  0000              add [rax],al
0000DD48  0000              add [rax],al
0000DD4A  0000              add [rax],al
0000DD4C  0000              add [rax],al
0000DD4E  0000              add [rax],al
0000DD50  0000              add [rax],al
0000DD52  0000              add [rax],al
0000DD54  0000              add [rax],al
0000DD56  0000              add [rax],al
0000DD58  0000              add [rax],al
0000DD5A  0000              add [rax],al
0000DD5C  0000              add [rax],al
0000DD5E  0000              add [rax],al
0000DD60  0000              add [rax],al
0000DD62  0000              add [rax],al
0000DD64  0000              add [rax],al
0000DD66  0000              add [rax],al
0000DD68  0000              add [rax],al
0000DD6A  0000              add [rax],al
0000DD6C  0000              add [rax],al
0000DD6E  0000              add [rax],al
0000DD70  0000              add [rax],al
0000DD72  0000              add [rax],al
0000DD74  0000              add [rax],al
0000DD76  0000              add [rax],al
0000DD78  0000              add [rax],al
0000DD7A  0000              add [rax],al
0000DD7C  0000              add [rax],al
0000DD7E  0000              add [rax],al
0000DD80  0000              add [rax],al
0000DD82  0000              add [rax],al
0000DD84  0000              add [rax],al
0000DD86  0000              add [rax],al
0000DD88  0000              add [rax],al
0000DD8A  0000              add [rax],al
0000DD8C  0000              add [rax],al
0000DD8E  0000              add [rax],al
0000DD90  0000              add [rax],al
0000DD92  0000              add [rax],al
0000DD94  0000              add [rax],al
0000DD96  0000              add [rax],al
0000DD98  0000              add [rax],al
0000DD9A  0000              add [rax],al
0000DD9C  0000              add [rax],al
0000DD9E  0000              add [rax],al
0000DDA0  0000              add [rax],al
0000DDA2  0000              add [rax],al
0000DDA4  0000              add [rax],al
0000DDA6  0000              add [rax],al
0000DDA8  0000              add [rax],al
0000DDAA  0000              add [rax],al
0000DDAC  0000              add [rax],al
0000DDAE  0000              add [rax],al
0000DDB0  0000              add [rax],al
0000DDB2  0000              add [rax],al
0000DDB4  0000              add [rax],al
0000DDB6  0000              add [rax],al
0000DDB8  0000              add [rax],al
0000DDBA  0000              add [rax],al
0000DDBC  0000              add [rax],al
0000DDBE  0000              add [rax],al
0000DDC0  0000              add [rax],al
0000DDC2  0000              add [rax],al
0000DDC4  0000              add [rax],al
0000DDC6  0000              add [rax],al
0000DDC8  0000              add [rax],al
0000DDCA  0000              add [rax],al
0000DDCC  0000              add [rax],al
0000DDCE  0000              add [rax],al
0000DDD0  0000              add [rax],al
0000DDD2  0000              add [rax],al
0000DDD4  0000              add [rax],al
0000DDD6  0000              add [rax],al
0000DDD8  0000              add [rax],al
0000DDDA  0000              add [rax],al
0000DDDC  0000              add [rax],al
0000DDDE  0000              add [rax],al
0000DDE0  0000              add [rax],al
0000DDE2  0000              add [rax],al
0000DDE4  0000              add [rax],al
0000DDE6  0000              add [rax],al
0000DDE8  0000              add [rax],al
0000DDEA  0000              add [rax],al
0000DDEC  0000              add [rax],al
0000DDEE  0000              add [rax],al
0000DDF0  0000              add [rax],al
0000DDF2  0000              add [rax],al
0000DDF4  0000              add [rax],al
0000DDF6  0000              add [rax],al
0000DDF8  0000              add [rax],al
0000DDFA  0000              add [rax],al
0000DDFC  0000              add [rax],al
0000DDFE  0000              add [rax],al
0000DE00  0000              add [rax],al
0000DE02  0000              add [rax],al
0000DE04  0000              add [rax],al
0000DE06  0000              add [rax],al
0000DE08  0000              add [rax],al
0000DE0A  0000              add [rax],al
0000DE0C  0000              add [rax],al
0000DE0E  0000              add [rax],al
0000DE10  0000              add [rax],al
0000DE12  0000              add [rax],al
0000DE14  0000              add [rax],al
0000DE16  0000              add [rax],al
0000DE18  0000              add [rax],al
0000DE1A  0000              add [rax],al
0000DE1C  0000              add [rax],al
0000DE1E  0000              add [rax],al
0000DE20  0000              add [rax],al
0000DE22  0000              add [rax],al
0000DE24  0000              add [rax],al
0000DE26  0000              add [rax],al
0000DE28  0000              add [rax],al
0000DE2A  0000              add [rax],al
0000DE2C  0000              add [rax],al
0000DE2E  0000              add [rax],al
0000DE30  0000              add [rax],al
0000DE32  0000              add [rax],al
0000DE34  0000              add [rax],al
0000DE36  0000              add [rax],al
0000DE38  0000              add [rax],al
0000DE3A  0000              add [rax],al
0000DE3C  0000              add [rax],al
0000DE3E  0000              add [rax],al
0000DE40  0000              add [rax],al
0000DE42  0000              add [rax],al
0000DE44  0000              add [rax],al
0000DE46  0000              add [rax],al
0000DE48  0000              add [rax],al
0000DE4A  0000              add [rax],al
0000DE4C  0000              add [rax],al
0000DE4E  0000              add [rax],al
0000DE50  0000              add [rax],al
0000DE52  0000              add [rax],al
0000DE54  0000              add [rax],al
0000DE56  0000              add [rax],al
0000DE58  0000              add [rax],al
0000DE5A  0000              add [rax],al
0000DE5C  0000              add [rax],al
0000DE5E  0000              add [rax],al
0000DE60  0000              add [rax],al
0000DE62  0000              add [rax],al
0000DE64  0000              add [rax],al
0000DE66  0000              add [rax],al
0000DE68  0000              add [rax],al
0000DE6A  0000              add [rax],al
0000DE6C  0000              add [rax],al
0000DE6E  0000              add [rax],al
0000DE70  0000              add [rax],al
0000DE72  0000              add [rax],al
0000DE74  0000              add [rax],al
0000DE76  0000              add [rax],al
0000DE78  0000              add [rax],al
0000DE7A  0000              add [rax],al
0000DE7C  0000              add [rax],al
0000DE7E  0000              add [rax],al
0000DE80  0000              add [rax],al
0000DE82  0000              add [rax],al
0000DE84  0000              add [rax],al
0000DE86  0000              add [rax],al
0000DE88  0000              add [rax],al
0000DE8A  0000              add [rax],al
0000DE8C  0000              add [rax],al
0000DE8E  0000              add [rax],al
0000DE90  0000              add [rax],al
0000DE92  0000              add [rax],al
0000DE94  0000              add [rax],al
0000DE96  0000              add [rax],al
0000DE98  0000              add [rax],al
0000DE9A  0000              add [rax],al
0000DE9C  0000              add [rax],al
0000DE9E  0000              add [rax],al
0000DEA0  0000              add [rax],al
0000DEA2  0000              add [rax],al
0000DEA4  0000              add [rax],al
0000DEA6  0000              add [rax],al
0000DEA8  0000              add [rax],al
0000DEAA  0000              add [rax],al
0000DEAC  0000              add [rax],al
0000DEAE  0000              add [rax],al
0000DEB0  0000              add [rax],al
0000DEB2  0000              add [rax],al
0000DEB4  0000              add [rax],al
0000DEB6  0000              add [rax],al
0000DEB8  0000              add [rax],al
0000DEBA  0000              add [rax],al
0000DEBC  0000              add [rax],al
0000DEBE  0000              add [rax],al
0000DEC0  0000              add [rax],al
0000DEC2  0000              add [rax],al
0000DEC4  0000              add [rax],al
0000DEC6  0000              add [rax],al
0000DEC8  0000              add [rax],al
0000DECA  0000              add [rax],al
0000DECC  0000              add [rax],al
0000DECE  0000              add [rax],al
0000DED0  0000              add [rax],al
0000DED2  0000              add [rax],al
0000DED4  0000              add [rax],al
0000DED6  0000              add [rax],al
0000DED8  0000              add [rax],al
0000DEDA  0000              add [rax],al
0000DEDC  0000              add [rax],al
0000DEDE  0000              add [rax],al
0000DEE0  0000              add [rax],al
0000DEE2  0000              add [rax],al
0000DEE4  0000              add [rax],al
0000DEE6  0000              add [rax],al
0000DEE8  0000              add [rax],al
0000DEEA  0000              add [rax],al
0000DEEC  0000              add [rax],al
0000DEEE  0000              add [rax],al
0000DEF0  0000              add [rax],al
0000DEF2  0000              add [rax],al
0000DEF4  0000              add [rax],al
0000DEF6  0000              add [rax],al
0000DEF8  0000              add [rax],al
0000DEFA  0000              add [rax],al
0000DEFC  0000              add [rax],al
0000DEFE  0000              add [rax],al
0000DF00  0000              add [rax],al
0000DF02  0000              add [rax],al
0000DF04  0000              add [rax],al
0000DF06  0000              add [rax],al
0000DF08  0000              add [rax],al
0000DF0A  0000              add [rax],al
0000DF0C  0000              add [rax],al
0000DF0E  0000              add [rax],al
0000DF10  0000              add [rax],al
0000DF12  0000              add [rax],al
0000DF14  0000              add [rax],al
0000DF16  0000              add [rax],al
0000DF18  0000              add [rax],al
0000DF1A  0000              add [rax],al
0000DF1C  0000              add [rax],al
0000DF1E  0000              add [rax],al
0000DF20  0000              add [rax],al
0000DF22  0000              add [rax],al
0000DF24  0000              add [rax],al
0000DF26  0000              add [rax],al
0000DF28  0000              add [rax],al
0000DF2A  0000              add [rax],al
0000DF2C  0000              add [rax],al
0000DF2E  0000              add [rax],al
0000DF30  0000              add [rax],al
0000DF32  0000              add [rax],al
0000DF34  0000              add [rax],al
0000DF36  0000              add [rax],al
0000DF38  0000              add [rax],al
0000DF3A  0000              add [rax],al
0000DF3C  0000              add [rax],al
0000DF3E  0000              add [rax],al
0000DF40  0000              add [rax],al
0000DF42  0000              add [rax],al
0000DF44  0000              add [rax],al
0000DF46  0000              add [rax],al
0000DF48  0000              add [rax],al
0000DF4A  0000              add [rax],al
0000DF4C  0000              add [rax],al
0000DF4E  0000              add [rax],al
0000DF50  0000              add [rax],al
0000DF52  0000              add [rax],al
0000DF54  0000              add [rax],al
0000DF56  0000              add [rax],al
0000DF58  0000              add [rax],al
0000DF5A  0000              add [rax],al
0000DF5C  0000              add [rax],al
0000DF5E  0000              add [rax],al
0000DF60  0000              add [rax],al
0000DF62  0000              add [rax],al
0000DF64  0000              add [rax],al
0000DF66  0000              add [rax],al
0000DF68  0000              add [rax],al
0000DF6A  0000              add [rax],al
0000DF6C  0000              add [rax],al
0000DF6E  0000              add [rax],al
0000DF70  0000              add [rax],al
0000DF72  0000              add [rax],al
0000DF74  0000              add [rax],al
0000DF76  0000              add [rax],al
0000DF78  0000              add [rax],al
0000DF7A  0000              add [rax],al
0000DF7C  0000              add [rax],al
0000DF7E  0000              add [rax],al
0000DF80  0000              add [rax],al
0000DF82  0000              add [rax],al
0000DF84  0000              add [rax],al
0000DF86  0000              add [rax],al
0000DF88  0000              add [rax],al
0000DF8A  0000              add [rax],al
0000DF8C  0000              add [rax],al
0000DF8E  0000              add [rax],al
0000DF90  0000              add [rax],al
0000DF92  0000              add [rax],al
0000DF94  0000              add [rax],al
0000DF96  0000              add [rax],al
0000DF98  0000              add [rax],al
0000DF9A  0000              add [rax],al
0000DF9C  0000              add [rax],al
0000DF9E  0000              add [rax],al
0000DFA0  0000              add [rax],al
0000DFA2  0000              add [rax],al
0000DFA4  0000              add [rax],al
0000DFA6  0000              add [rax],al
0000DFA8  0000              add [rax],al
0000DFAA  0000              add [rax],al
0000DFAC  0000              add [rax],al
0000DFAE  0000              add [rax],al
0000DFB0  0000              add [rax],al
0000DFB2  0000              add [rax],al
0000DFB4  0000              add [rax],al
0000DFB6  0000              add [rax],al
0000DFB8  0000              add [rax],al
0000DFBA  0000              add [rax],al
0000DFBC  0000              add [rax],al
0000DFBE  0000              add [rax],al
0000DFC0  0000              add [rax],al
0000DFC2  0000              add [rax],al
0000DFC4  0000              add [rax],al
0000DFC6  0000              add [rax],al
0000DFC8  0000              add [rax],al
0000DFCA  0000              add [rax],al
0000DFCC  0000              add [rax],al
0000DFCE  0000              add [rax],al
0000DFD0  0000              add [rax],al
0000DFD2  0000              add [rax],al
0000DFD4  0000              add [rax],al
0000DFD6  0000              add [rax],al
0000DFD8  0000              add [rax],al
0000DFDA  0000              add [rax],al
0000DFDC  0000              add [rax],al
0000DFDE  0000              add [rax],al
0000DFE0  0000              add [rax],al
0000DFE2  0000              add [rax],al
0000DFE4  0000              add [rax],al
0000DFE6  0000              add [rax],al
0000DFE8  0000              add [rax],al
0000DFEA  0000              add [rax],al
0000DFEC  0000              add [rax],al
0000DFEE  0000              add [rax],al
0000DFF0  0000              add [rax],al
0000DFF2  0000              add [rax],al
0000DFF4  0000              add [rax],al
0000DFF6  0000              add [rax],al
0000DFF8  0000              add [rax],al
0000DFFA  0000              add [rax],al
0000DFFC  0000              add [rax],al
0000DFFE  0000              add [rax],al
0000E000  0400              add al,0x0
0000E002  0000              add [rax],al
0000E004  0100              add [rax],eax
0000E006  0000              add [rax],al
0000E008  A800              test al,0x0
0000E00A  0000              add [rax],al
0000E00C  0000              add [rax],al
0000E00E  0000              add [rax],al
0000E010  476F              outsd
0000E012  7420              jz 0xe034
0000E014  696E7465727275    imul ebp,[rsi+0x74],dword 0x75727265
0000E01B  7074              jo 0xe091
0000E01D  3A20              cmp ah,[rax]
0000E01F  2573202825        and eax,0x25282073
0000E024  64292C20          sub [fs:rax],ebp
0000E028  657272            gs jc 0xe09d
0000E02B  6F                outsd
0000E02C  723A              jc 0xe068
0000E02E  202523780052      and [rel 0x52015857],ah
0000E034  65                gs
0000E035  63                db 0x63
0000E036  6569766564206972  imul esi,[gs:rsi+0x65],dword 0x72692064
0000E03E  7120              jno 0xe060
0000E040  25640A0044        and eax,0x44000a64
0000E045  69766973696F6E    imul esi,[rsi+0x69],dword 0x6e6f6973
0000E04C  204279            and [rdx+0x79],al
0000E04F  205A65            and [rdx+0x65],bl
0000E052  726F              jc 0xe0c3
0000E054  00446562          add [rbp+0x62],al
0000E058  7567              jnz 0xe0c1
0000E05A  004E6F            add [rsi+0x6f],cl
0000E05D  6E                outsb
0000E05E  204D61            and [rbp+0x61],cl
0000E061  736B              jnc 0xe0ce
0000E063  61                db 0x61
0000E064  62                db 0x62
0000E065  6C                insb
0000E066  6520496E          and [gs:rcx+0x6e],cl
0000E06A  7465              jz 0xe0d1
0000E06C  7272              jc 0xe0e0
0000E06E  7570              jnz 0xe0e0
0000E070  7400              jz 0xe072
0000E072  427265            jc 0xe0da
0000E075  61                db 0x61
0000E076  6B706F69          imul esi,[rax+0x6f],byte +0x69
0000E07A  6E                outsb
0000E07B  7400              jz 0xe07d
0000E07D  496E              o64 outsb
0000E07F  746F              jz 0xe0f0
0000E081  20446574          and [rbp+0x74],al
0000E085  65                gs
0000E086  63                db 0x63
0000E087  7465              jz 0xe0ee
0000E089  64204F76          and [fs:rdi+0x76],cl
0000E08D  657266            gs jc 0xe0f6
0000E090  6C                insb
0000E091  6F                outsd
0000E092  7700              ja 0xe094
0000E094  4F7574            o64 jnz 0xe10b
0000E097  206F66            and [rdi+0x66],ch
0000E09A  20426F            and [rdx+0x6f],al
0000E09D  756E              jnz 0xe10d
0000E09F  647300            fs jnc 0xe0a2
0000E0A2  496E              o64 outsb
0000E0A4  7661              jna 0xe107
0000E0A6  6C                insb
0000E0A7  6964204F70636F64  imul esp,[rax+0x4f],dword 0x646f6370
0000E0AF  65004E6F          add [gs:rsi+0x6f],cl
0000E0B3  20436F            and [rbx+0x6f],al
0000E0B6  7072              jo 0xe12a
0000E0B8  6F                outsd
0000E0B9  63                db 0x63
0000E0BA  657373            gs jnc 0xe130
0000E0BD  6F                outsd
0000E0BE  7200              jc 0xe0c0
0000E0C0  446F              outsd
0000E0C2  7562              jnz 0xe126
0000E0C4  6C                insb
0000E0C5  65204661          and [gs:rsi+0x61],al
0000E0C9  756C              jnz 0xe137
0000E0CB  7400              jz 0xe0cd
0000E0CD  436F              outsd
0000E0CF  7072              jo 0xe143
0000E0D1  6F                outsd
0000E0D2  63                db 0x63
0000E0D3  657373            gs jnc 0xe149
0000E0D6  6F                outsd
0000E0D7  7220              jc 0xe0f9
0000E0D9  53                push rbx
0000E0DA  65676D            gs a32 insd
0000E0DD  656E              gs outsb
0000E0DF  7420              jz 0xe101
0000E0E1  4F7665            o64 jna 0xe149
0000E0E4  7272              jc 0xe158
0000E0E6  756E              jnz 0xe156
0000E0E8  004261            add [rdx+0x61],al
0000E0EB  6420545353        and [fs:rbx+rdx*2+0x53],dl
0000E0F0  005365            add [rbx+0x65],dl
0000E0F3  676D              a32 insd
0000E0F5  656E              gs outsb
0000E0F7  7420              jz 0xe119
0000E0F9  4E                rex.wrx
0000E0FA  6F                outsd
0000E0FB  7420              jz 0xe11d
0000E0FD  50                push rax
0000E0FE  7265              jc 0xe165
0000E100  7365              jnc 0xe167
0000E102  6E                outsb
0000E103  7400              jz 0xe105
0000E105  53                push rbx
0000E106  7461              jz 0xe169
0000E108  63                db 0x63
0000E109  6B2046            imul esp,[rax],byte +0x46
0000E10C  61                db 0x61
0000E10D  756C              jnz 0xe17b
0000E10F  7400              jz 0xe111
0000E111  47                rex.rxb
0000E112  656E              gs outsb
0000E114  657261            gs jc 0xe178
0000E117  6C                insb
0000E118  205072            and [rax+0x72],dl
0000E11B  6F                outsd
0000E11C  7465              jz 0xe183
0000E11E  63                db 0x63
0000E11F  7469              jz 0xe18a
0000E121  6F                outsd
0000E122  6E                outsb
0000E123  204661            and [rsi+0x61],al
0000E126  756C              jnz 0xe194
0000E128  7400              jz 0xe12a
0000E12A  50                push rax
0000E12B  61                db 0x61
0000E12C  6765204661        and [gs:esi+0x61],al
0000E131  756C              jnz 0xe19f
0000E133  7400              jz 0xe135
0000E135  55                push rbp
0000E136  6E                outsb
0000E137  6B6E6F77          imul ebp,[rsi+0x6f],byte +0x77
0000E13B  6E                outsb
0000E13C  20496E            and [rcx+0x6e],cl
0000E13F  7465              jz 0xe1a6
0000E141  7272              jc 0xe1b5
0000E143  7570              jnz 0xe1b5
0000E145  7400              jz 0xe147
0000E147  436F              outsd
0000E149  7072              jo 0xe1bd
0000E14B  6F                outsd
0000E14C  63                db 0x63
0000E14D  657373            gs jnc 0xe1c3
0000E150  6F                outsd
0000E151  7220              jc 0xe173
0000E153  46                rex.rx
0000E154  61                db 0x61
0000E155  756C              jnz 0xe1c3
0000E157  7400              jz 0xe159
0000E159  416C              insb
0000E15B  69676E6D656E74    imul esp,[rdi+0x6e],dword 0x746e656d
0000E162  204368            and [rbx+0x68],al
0000E165  65                gs
0000E166  63                db 0x63
0000E167  6B004D            imul eax,[rax],byte +0x4d
0000E16A  61                db 0x61
0000E16B  63                db 0x63
0000E16C  68696E6520        push qword 0x20656e69
0000E171  436865636B00      push qword 0x6b6365
0000E177  52                push rdx
0000E178  657365            gs jnc 0xe1e0
0000E17B  7276              jc 0xe1f3
0000E17D  65640000          add [fs:rax],al
0000E181  8E00              mov es,[rax]
0000E183  0000              add [rax],al
0000E185  0000              add [rax],al
0000E187  007092            add [rax-0x6e],dh
0000E18A  0000              add [rax],al
0000E18C  0000              add [rax],al
0000E18E  0000              add [rax],al
0000E190  0000              add [rax],al
0000E192  0000              add [rax],al
0000E194  0000              add [rax],al
0000E196  0000              add [rax],al
0000E198  0000              add [rax],al
0000E19A  0000              add [rax],al
0000E19C  640000            add [fs:rax],al
0000E19F  00640000          add [rax+rax+0x0],ah
0000E1A3  00640000          add [rax+rax+0x0],ah
0000E1A7  00640000          add [rax+rax+0x0],ah
0000E1AB  0000              add [rax],al
0000E1AD  0000              add [rax],al
0000E1AF  0000              add [rax],al
0000E1B1  0000              add [rax],al
0000E1B3  0000              add [rax],al
0000E1B5  00E0              add al,ah
0000E1B7  7F00              jg 0xe1b9
0000E1B9  0000              add [rax],al
0000E1BB  0000              add [rax],al
0000E1BD  006003            add [rax+0x3],ah
0000E1C0  0000              add [rax],al
0000E1C2  0000              add [rax],al
0000E1C4  0000              add [rax],al
0000E1C6  F0                lock
0000E1C7  3F                db 0x3f
0000E1C8  0000              add [rax],al
0000E1CA  0000              add [rax],al
0000E1CC  0000              add [rax],al
0000E1CE  F0BF00000040      lock mov edi,0x40000000
0000E1D4  03B8E23F06D0      add edi,[rax-0x2ff9c01e]
0000E1DA  CF                iret
0000E1DB  43EBFD            jmp short 0xe1db
0000E1DE  4C                rex.wr
0000E1DF  3E0000            add [ds:rax],al
0000E1E2  0000              add [rax],al
0000E1E4  0000              add [rax],al
0000E1E6  F8                clc
0000E1E7  3F                db 0x3f
0000E1E8  0000              add [rax],al
0000E1EA  0000              add [rax],al
0000E1EC  00CC              add ah,cl
0000E1EE  90                nop
0000E1EF  C00000            rol byte [rax],byte 0x0
0000E1F2  0000              add [rax],al
0000E1F4  0000              add [rax],al
0000E1F6  90                nop
0000E1F7  409C              pushf
0000E1F9  7500              jnz 0xe1fb
0000E1FB  883CE4            mov [rsp],bh
0000E1FE  37                db 0x37
0000E1FF  7E59              jng 0xe25a
0000E201  F3F8              rep clc
0000E203  C21F6E            ret 0x6e1f
0000E206  A5                movsd
0000E207  0100              add [rax],eax
0000E209  0000              add [rax],al
0000E20B  60                db 0x60
0000E20C  4715F73F44DF      adc eax,0xdf443ff7
0000E212  5D                pop rbp
0000E213  F8                clc
0000E214  0BAE543E0000      or ebp,[rsi+0x3e54]
0000E21A  0000              add [rax],al
0000E21C  0000              add [rax],al
0000E21E  D03F              sar byte [rdi],1
0000E220  55                push rbp
0000E221  55                push rbp
0000E222  55                push rbp
0000E223  55                push rbp
0000E224  55                push rbp
0000E225  55                push rbp
0000E226  D5                db 0xd5
0000E227  3F                db 0x3f
0000E228  0000              add [rax],al
0000E22A  0000              add [rax],al
0000E22C  0000              add [rax],al
0000E22E  E03F              loopne 0xe26f
0000E230  FE822B654715      inc byte [rdx+0x1547652b]
0000E236  F73F              idiv dword [rdi]
0000E238  0000              add [rax],al
0000E23A  0000              add [rax],al
0000E23C  0000              add [rax],al
0000E23E  40                rex
0000E23F  43EF              out dx,eax
0000E241  4E                rex.wrx
0000E242  45                rex.rb
0000E243  4A287ECA          o64 sub [rsi-0x36],dil
0000E247  3F                db 0x3f
0000E248  65DBC9            gs fcmovne st1
0000E24B  93                xchg eax,ebx
0000E24C  4A86CD            o64 xchg cl,bpl
0000E24F  3F                db 0x3f
0000E250  01411D            add [rcx+0x1d],eax
0000E253  A96074D13F        test eax,0x3fd17460
0000E258  4D                rex.wrb
0000E259  26                es
0000E25A  8F                db 0x8f
0000E25B  51                push rcx
0000E25C  55                push rbp
0000E25D  55                push rbp
0000E25E  D5                db 0xd5
0000E25F  3F                db 0x3f
0000E260  FFAB6FDBB66D      jmp dword far [rbx+0x6db6db6f]
0000E266  DB3F              fstp tword [rdi]
0000E268  0333              add esi,[rbx]
0000E26A  3333              xor esi,[rbx]
0000E26C  3333              xor esi,[rbx]
0000E26E  E33F              jrcxz 0xe2af
0000E270  0000              add [rax],al
0000E272  0000              add [rax],al
0000E274  0000              add [rax],al
0000E276  084000            or [rax+0x0],al
0000E279  0000              add [rax],al
0000E27B  E009              loopne 0xe286
0000E27D  C7                db 0xc7
0000E27E  EE                out dx,al
0000E27F  3F                db 0x3f
0000E280  FD                std
0000E281  033A              add edi,[rdx]
0000E283  DC09              fmul qword [rcx]
0000E285  C7                db 0xc7
0000E286  EE                out dx,al
0000E287  3F                db 0x3f
0000E288  F5                cmc
0000E289  015B14            add [rbx+0x14],ebx
0000E28C  E02F              loopne 0xe2bd
0000E28E  3EBEFE822B65      ds mov esi,0x652b82fe
0000E294  4715973C0000      adc eax,0x3c97
0000E29A  0000              add [rax],al
0000E29C  43                rex.xb
0000E29D  2EE63F            cs out 0x3f,al
0000E2A0  EF                out dx,eax
0000E2A1  39FA              cmp edx,edi
0000E2A3  FE422E            inc byte [rdx+0x2e]
0000E2A6  E63F              out 0x3f,al
0000E2A8  396CA80C          cmp [rax+rbp*4+0xc],ebp
0000E2AC  61                db 0x61
0000E2AD  5C                pop rsp
0000E2AE  20BED0A4BE72      and [rsi+0x72bea4d0],bh
0000E2B4  6937663EF16B      imul esi,[rdi],dword 0x6bf13e66
0000E2BA  D2C5              rol ch,cl
0000E2BC  41BDBB3E2CDE      mov r13d,0xde2c3ebb
0000E2C2  25AF6A5611        and eax,0x11566aaf
0000E2C7  3F                db 0x3f
0000E2C8  93                xchg eax,ebx
0000E2C9  BDBE166CC1        mov ebp,0xc16c16be
0000E2CE  66                o16
0000E2CF  3F                db 0x3f
0000E2D0  3E55              ds push rbp
0000E2D2  55                push rbp
0000E2D3  55                push rbp
0000E2D4  55                push rbp
0000E2D5  55                push rbp
0000E2D6  C5                db 0xc5
0000E2D7  3F                db 0x3f
0000E2D8  0000              add [rax],al
0000E2DA  0000              add [rax],al
0000E2DC  0000              add [rax],al
0000E2DE  004000            add [rax+0x0],al
0000E2E1  0000              add [rax],al
0000E2E3  0000              add [rax],al
0000E2E5  0000              add [rax],al
0000E2E7  800000            add byte [rax],0x0
0000E2EA  0000              add [rax],al
0000E2EC  0000              add [rax],al
0000E2EE  0000              add [rax],al
0000E2F0  FC                cld
0000E2F1  A7                cmpsd
0000E2F2  0000              add [rax],al
0000E2F4  0000              add [rax],al
0000E2F6  0000              add [rax],al
0000E2F8  70A7              jo 0xe2a1
0000E2FA  0000              add [rax],al
0000E2FC  0000              add [rax],al
0000E2FE  0000              add [rax],al
0000E300  70A7              jo 0xe2a9
0000E302  0000              add [rax],al
0000E304  0000              add [rax],al
0000E306  0000              add [rax],al
0000E308  48A800            o64 test al,0x0
0000E30B  0000              add [rax],al
0000E30D  0000              add [rax],al
0000E30F  0070A7            add [rax-0x59],dh
0000E312  0000              add [rax],al
0000E314  0000              add [rax],al
0000E316  0000              add [rax],al
0000E318  70A7              jo 0xe2c1
0000E31A  0000              add [rax],al
0000E31C  0000              add [rax],al
0000E31E  0000              add [rax],al
0000E320  70A7              jo 0xe2c9
0000E322  0000              add [rax],al
0000E324  0000              add [rax],al
0000E326  0000              add [rax],al
0000E328  70A7              jo 0xe2d1
0000E32A  0000              add [rax],al
0000E32C  0000              add [rax],al
0000E32E  0000              add [rax],al
0000E330  70A7              jo 0xe2d9
0000E332  0000              add [rax],al
0000E334  0000              add [rax],al
0000E336  0000              add [rax],al
0000E338  70A7              jo 0xe2e1
0000E33A  0000              add [rax],al
0000E33C  0000              add [rax],al
0000E33E  0000              add [rax],al
0000E340  70A7              jo 0xe2e9
0000E342  0000              add [rax],al
0000E344  0000              add [rax],al
0000E346  0000              add [rax],al
0000E348  08A800000000      or [rax+0x0],ch
0000E34E  0000              add [rax],al
0000E350  70A7              jo 0xe2f9
0000E352  0000              add [rax],al
0000E354  0000              add [rax],al
0000E356  0000              add [rax],al
0000E358  FC                cld
0000E359  A7                cmpsd
0000E35A  0000              add [rax],al
0000E35C  0000              add [rax],al
0000E35E  0000              add [rax],al
0000E360  70A7              jo 0xe309
0000E362  0000              add [rax],al
0000E364  0000              add [rax],al
0000E366  0000              add [rax],al
0000E368  70A7              jo 0xe311
0000E36A  0000              add [rax],al
0000E36C  0000              add [rax],al
0000E36E  0000              add [rax],al
0000E370  F8                clc
0000E371  A7                cmpsd
0000E372  0000              add [rax],al
0000E374  0000              add [rax],al
0000E376  0000              add [rax],al
0000E378  DCAA00000000      fsubr qword [rdx+0x0]
0000E37E  0000              add [rax],al
0000E380  38A800000000      cmp [rax+0x0],ch
0000E386  0000              add [rax],al
0000E388  38A800000000      cmp [rax+0x0],ch
0000E38E  0000              add [rax],al
0000E390  38A800000000      cmp [rax+0x0],ch
0000E396  0000              add [rax],al
0000E398  38A800000000      cmp [rax+0x0],ch
0000E39E  0000              add [rax],al
0000E3A0  38A800000000      cmp [rax+0x0],ch
0000E3A6  0000              add [rax],al
0000E3A8  38A800000000      cmp [rax+0x0],ch
0000E3AE  0000              add [rax],al
0000E3B0  38A800000000      cmp [rax+0x0],ch
0000E3B6  0000              add [rax],al
0000E3B8  38A800000000      cmp [rax+0x0],ch
0000E3BE  0000              add [rax],al
0000E3C0  38A800000000      cmp [rax+0x0],ch
0000E3C6  0000              add [rax],al
0000E3C8  79AC              jns 0xe376
0000E3CA  0000              add [rax],al
0000E3CC  0000              add [rax],al
0000E3CE  0000              add [rax],al
0000E3D0  A9AA000000        test eax,0xaa
0000E3D5  0000              add [rax],al
0000E3D7  00B8A9000000      add [rax+0xa9],bh
0000E3DD  0000              add [rax],al
0000E3DF  0038              add [rax],bh
0000E3E1  A800              test al,0x0
0000E3E3  0000              add [rax],al
0000E3E5  0000              add [rax],al
0000E3E7  0038              add [rax],bh
0000E3E9  A800              test al,0x0
0000E3EB  0000              add [rax],al
0000E3ED  0000              add [rax],al
0000E3EF  0038              add [rax],bh
0000E3F1  A800              test al,0x0
0000E3F3  0000              add [rax],al
0000E3F5  0000              add [rax],al
0000E3F7  0038              add [rax],bh
0000E3F9  A800              test al,0x0
0000E3FB  0000              add [rax],al
0000E3FD  0000              add [rax],al
0000E3FF  00B8A9000000      add [rax+0xa9],bh
0000E405  0000              add [rax],al
0000E407  0038              add [rax],bh
0000E409  A800              test al,0x0
0000E40B  0000              add [rax],al
0000E40D  0000              add [rax],al
0000E40F  0038              add [rax],bh
0000E411  A800              test al,0x0
0000E413  0000              add [rax],al
0000E415  0000              add [rax],al
0000E417  0038              add [rax],bh
0000E419  A800              test al,0x0
0000E41B  0000              add [rax],al
0000E41D  0000              add [rax],al
0000E41F  0038              add [rax],bh
0000E421  A800              test al,0x0
0000E423  0000              add [rax],al
0000E425  0000              add [rax],al
0000E427  0054AA00          add [rdx+rbp*4+0x0],dl
0000E42B  0000              add [rax],al
0000E42D  0000              add [rax],al
0000E42F  0038              add [rax],bh
0000E431  A800              test al,0x0
0000E433  0000              add [rax],al
0000E435  0000              add [rax],al
0000E437  0038              add [rax],bh
0000E439  A800              test al,0x0
0000E43B  0000              add [rax],al
0000E43D  0000              add [rax],al
0000E43F  0038              add [rax],bh
0000E441  A800              test al,0x0
0000E443  0000              add [rax],al
0000E445  0000              add [rax],al
0000E447  0038              add [rax],bh
0000E449  A800              test al,0x0
0000E44B  0000              add [rax],al
0000E44D  0000              add [rax],al
0000E44F  001B              add [rbx],bl
0000E451  AC                lodsb
0000E452  0000              add [rax],al
0000E454  0000              add [rax],al
0000E456  0000              add [rax],al
0000E458  38A800000000      cmp [rax+0x0],ch
0000E45E  0000              add [rax],al
0000E460  38A800000000      cmp [rax+0x0],ch
0000E466  0000              add [rax],al
0000E468  38A800000000      cmp [rax+0x0],ch
0000E46E  0000              add [rax],al
0000E470  38A800000000      cmp [rax+0x0],ch
0000E476  0000              add [rax],al
0000E478  2BAD00000000      sub ebp,[rbp+0x0]
0000E47E  0000              add [rax],al
0000E480  3000              xor [rax],al
0000E482  0000              add [rax],al
0000E484  0000              add [rax],al
0000E486  0000              add [rax],al
0000E488  0000              add [rax],al
0000E48A  0000              add [rax],al
0000E48C  0000              add [rax],al
0000E48E  0000              add [rax],al
0000E490  0000              add [rax],al
0000E492  0000              add [rax],al
0000E494  0000              add [rax],al
0000E496  0000              add [rax],al
0000E498  0000              add [rax],al
0000E49A  0000              add [rax],al
0000E49C  0000              add [rax],al
0000E49E  0000              add [rax],al
0000E4A0  0000              add [rax],al
0000E4A2  0000              add [rax],al
0000E4A4  0000              add [rax],al
0000E4A6  0000              add [rax],al
0000E4A8  0000              add [rax],al
0000E4AA  0000              add [rax],al
0000E4AC  0000              add [rax],al
0000E4AE  0000              add [rax],al
0000E4B0  0000              add [rax],al
0000E4B2  0000              add [rax],al
0000E4B4  0000              add [rax],al
0000E4B6  0000              add [rax],al
0000E4B8  0000              add [rax],al
0000E4BA  0000              add [rax],al
0000E4BC  0000              add [rax],al
0000E4BE  0000              add [rax],al
0000E4C0  0000              add [rax],al
0000E4C2  0000              add [rax],al
0000E4C4  0000              add [rax],al
0000E4C6  0000              add [rax],al
0000E4C8  0000              add [rax],al
0000E4CA  0000              add [rax],al
0000E4CC  0000              add [rax],al
0000E4CE  0000              add [rax],al
0000E4D0  0000              add [rax],al
0000E4D2  0000              add [rax],al
0000E4D4  0000              add [rax],al
0000E4D6  0000              add [rax],al
0000E4D8  0000              add [rax],al
0000E4DA  0000              add [rax],al
0000E4DC  0000              add [rax],al
0000E4DE  0000              add [rax],al
0000E4E0  0000              add [rax],al
0000E4E2  0000              add [rax],al
0000E4E4  0000              add [rax],al
0000E4E6  0000              add [rax],al
0000E4E8  0000              add [rax],al
0000E4EA  0000              add [rax],al
0000E4EC  0000              add [rax],al
0000E4EE  0000              add [rax],al
0000E4F0  0000              add [rax],al
0000E4F2  0000              add [rax],al
0000E4F4  0000              add [rax],al
0000E4F6  0000              add [rax],al
0000E4F8  0000              add [rax],al
0000E4FA  0000              add [rax],al
0000E4FC  0000              add [rax],al
0000E4FE  0000              add [rax],al
0000E500  0000              add [rax],al
0000E502  0000              add [rax],al
0000E504  0000              add [rax],al
0000E506  0000              add [rax],al
0000E508  0000              add [rax],al
0000E50A  0000              add [rax],al
0000E50C  0000              add [rax],al
0000E50E  0000              add [rax],al
0000E510  0000              add [rax],al
0000E512  0000              add [rax],al
0000E514  0000              add [rax],al
0000E516  0000              add [rax],al
0000E518  0000              add [rax],al
0000E51A  0000              add [rax],al
0000E51C  0000              add [rax],al
0000E51E  0000              add [rax],al
0000E520  0000              add [rax],al
0000E522  0000              add [rax],al
0000E524  0000              add [rax],al
0000E526  0000              add [rax],al
0000E528  0000              add [rax],al
0000E52A  0000              add [rax],al
0000E52C  0000              add [rax],al
0000E52E  0000              add [rax],al
0000E530  0000              add [rax],al
0000E532  0000              add [rax],al
0000E534  0000              add [rax],al
0000E536  0000              add [rax],al
0000E538  0000              add [rax],al
0000E53A  0000              add [rax],al
0000E53C  0000              add [rax],al
0000E53E  0000              add [rax],al
0000E540  0000              add [rax],al
0000E542  0000              add [rax],al
0000E544  0000              add [rax],al
0000E546  0000              add [rax],al
0000E548  0000              add [rax],al
0000E54A  0000              add [rax],al
0000E54C  0000              add [rax],al
0000E54E  0000              add [rax],al
0000E550  0000              add [rax],al
0000E552  0000              add [rax],al
0000E554  0000              add [rax],al
0000E556  0000              add [rax],al
0000E558  0000              add [rax],al
0000E55A  0000              add [rax],al
0000E55C  0000              add [rax],al
0000E55E  0000              add [rax],al
0000E560  0000              add [rax],al
0000E562  0000              add [rax],al
0000E564  0000              add [rax],al
0000E566  0000              add [rax],al
0000E568  0000              add [rax],al
0000E56A  0000              add [rax],al
0000E56C  0000              add [rax],al
0000E56E  0000              add [rax],al
0000E570  0000              add [rax],al
0000E572  0000              add [rax],al
0000E574  0000              add [rax],al
0000E576  0000              add [rax],al
0000E578  0000              add [rax],al
0000E57A  0000              add [rax],al
0000E57C  0000              add [rax],al
0000E57E  0000              add [rax],al
0000E580  0000              add [rax],al
0000E582  0000              add [rax],al
0000E584  0000              add [rax],al
0000E586  0000              add [rax],al
0000E588  0000              add [rax],al
0000E58A  0000              add [rax],al
0000E58C  0000              add [rax],al
0000E58E  0000              add [rax],al
0000E590  0000              add [rax],al
0000E592  0000              add [rax],al
0000E594  0000              add [rax],al
0000E596  0000              add [rax],al
0000E598  0000              add [rax],al
0000E59A  0000              add [rax],al
0000E59C  0000              add [rax],al
0000E59E  0000              add [rax],al
0000E5A0  0000              add [rax],al
0000E5A2  0000              add [rax],al
0000E5A4  0000              add [rax],al
0000E5A6  0000              add [rax],al
0000E5A8  0000              add [rax],al
0000E5AA  0000              add [rax],al
0000E5AC  0000              add [rax],al
0000E5AE  0000              add [rax],al
0000E5B0  0000              add [rax],al
0000E5B2  0000              add [rax],al
0000E5B4  0000              add [rax],al
0000E5B6  0000              add [rax],al
0000E5B8  0000              add [rax],al
0000E5BA  0000              add [rax],al
0000E5BC  0000              add [rax],al
0000E5BE  0000              add [rax],al
0000E5C0  0000              add [rax],al
0000E5C2  0000              add [rax],al
0000E5C4  0000              add [rax],al
0000E5C6  0000              add [rax],al
0000E5C8  0000              add [rax],al
0000E5CA  0000              add [rax],al
0000E5CC  0000              add [rax],al
0000E5CE  0000              add [rax],al
0000E5D0  0000              add [rax],al
0000E5D2  0000              add [rax],al
0000E5D4  0000              add [rax],al
0000E5D6  0000              add [rax],al
0000E5D8  0000              add [rax],al
0000E5DA  0000              add [rax],al
0000E5DC  0000              add [rax],al
0000E5DE  0000              add [rax],al
0000E5E0  0000              add [rax],al
0000E5E2  0000              add [rax],al
0000E5E4  0000              add [rax],al
0000E5E6  0000              add [rax],al
0000E5E8  0000              add [rax],al
0000E5EA  0000              add [rax],al
0000E5EC  0000              add [rax],al
0000E5EE  0000              add [rax],al
0000E5F0  0000              add [rax],al
0000E5F2  0000              add [rax],al
0000E5F4  0000              add [rax],al
0000E5F6  0000              add [rax],al
0000E5F8  0000              add [rax],al
0000E5FA  0000              add [rax],al
0000E5FC  0000              add [rax],al
0000E5FE  0000              add [rax],al
0000E600  0000              add [rax],al
0000E602  0000              add [rax],al
0000E604  0000              add [rax],al
0000E606  0000              add [rax],al
0000E608  0000              add [rax],al
0000E60A  0000              add [rax],al
0000E60C  0000              add [rax],al
0000E60E  0000              add [rax],al
0000E610  0000              add [rax],al
0000E612  0000              add [rax],al
0000E614  0000              add [rax],al
0000E616  0000              add [rax],al
0000E618  0000              add [rax],al
0000E61A  0000              add [rax],al
0000E61C  0000              add [rax],al
0000E61E  0000              add [rax],al
0000E620  0000              add [rax],al
0000E622  0000              add [rax],al
0000E624  0000              add [rax],al
0000E626  0000              add [rax],al
0000E628  0000              add [rax],al
0000E62A  0000              add [rax],al
0000E62C  0000              add [rax],al
0000E62E  0000              add [rax],al
0000E630  0000              add [rax],al
0000E632  0000              add [rax],al
0000E634  0000              add [rax],al
0000E636  0000              add [rax],al
0000E638  0000              add [rax],al
0000E63A  0000              add [rax],al
0000E63C  0000              add [rax],al
0000E63E  0000              add [rax],al
0000E640  0000              add [rax],al
0000E642  0000              add [rax],al
0000E644  0000              add [rax],al
0000E646  0000              add [rax],al
0000E648  0000              add [rax],al
0000E64A  0000              add [rax],al
0000E64C  0000              add [rax],al
0000E64E  0000              add [rax],al
0000E650  0000              add [rax],al
0000E652  0000              add [rax],al
0000E654  0000              add [rax],al
0000E656  0000              add [rax],al
0000E658  0000              add [rax],al
0000E65A  0000              add [rax],al
0000E65C  0000              add [rax],al
0000E65E  0000              add [rax],al
0000E660  0000              add [rax],al
0000E662  0000              add [rax],al
0000E664  0000              add [rax],al
0000E666  0000              add [rax],al
0000E668  0000              add [rax],al
0000E66A  0000              add [rax],al
0000E66C  0000              add [rax],al
0000E66E  0000              add [rax],al
0000E670  0000              add [rax],al
0000E672  0000              add [rax],al
0000E674  0000              add [rax],al
0000E676  0000              add [rax],al
0000E678  0000              add [rax],al
0000E67A  0000              add [rax],al
0000E67C  0000              add [rax],al
0000E67E  0000              add [rax],al
0000E680  0000              add [rax],al
0000E682  0000              add [rax],al
0000E684  0000              add [rax],al
0000E686  0000              add [rax],al
0000E688  0000              add [rax],al
0000E68A  0000              add [rax],al
0000E68C  0000              add [rax],al
0000E68E  0000              add [rax],al
0000E690  0000              add [rax],al
0000E692  0000              add [rax],al
0000E694  0000              add [rax],al
0000E696  0000              add [rax],al
0000E698  0000              add [rax],al
0000E69A  0000              add [rax],al
0000E69C  0000              add [rax],al
0000E69E  0000              add [rax],al
0000E6A0  0000              add [rax],al
0000E6A2  0000              add [rax],al
0000E6A4  0000              add [rax],al
0000E6A6  0000              add [rax],al
0000E6A8  0000              add [rax],al
0000E6AA  0000              add [rax],al
0000E6AC  0000              add [rax],al
0000E6AE  0000              add [rax],al
0000E6B0  0000              add [rax],al
0000E6B2  0000              add [rax],al
0000E6B4  0000              add [rax],al
0000E6B6  0000              add [rax],al
0000E6B8  0000              add [rax],al
0000E6BA  0000              add [rax],al
0000E6BC  0000              add [rax],al
0000E6BE  0000              add [rax],al
0000E6C0  0000              add [rax],al
0000E6C2  0000              add [rax],al
0000E6C4  0000              add [rax],al
0000E6C6  0000              add [rax],al
0000E6C8  0000              add [rax],al
0000E6CA  0000              add [rax],al
0000E6CC  0000              add [rax],al
0000E6CE  0000              add [rax],al
0000E6D0  0000              add [rax],al
0000E6D2  0000              add [rax],al
0000E6D4  0000              add [rax],al
0000E6D6  0000              add [rax],al
0000E6D8  0000              add [rax],al
0000E6DA  0000              add [rax],al
0000E6DC  0000              add [rax],al
0000E6DE  0000              add [rax],al
0000E6E0  0000              add [rax],al
0000E6E2  0000              add [rax],al
0000E6E4  0000              add [rax],al
0000E6E6  0000              add [rax],al
0000E6E8  0000              add [rax],al
0000E6EA  0000              add [rax],al
0000E6EC  0000              add [rax],al
0000E6EE  0000              add [rax],al
0000E6F0  0000              add [rax],al
0000E6F2  0000              add [rax],al
0000E6F4  0000              add [rax],al
0000E6F6  0000              add [rax],al
0000E6F8  0000              add [rax],al
0000E6FA  0000              add [rax],al
0000E6FC  0000              add [rax],al
0000E6FE  0000              add [rax],al
0000E700  0000              add [rax],al
0000E702  0000              add [rax],al
0000E704  0000              add [rax],al
0000E706  0000              add [rax],al
0000E708  0000              add [rax],al
0000E70A  0000              add [rax],al
0000E70C  0000              add [rax],al
0000E70E  0000              add [rax],al
0000E710  0000              add [rax],al
0000E712  0000              add [rax],al
0000E714  0000              add [rax],al
0000E716  0000              add [rax],al
0000E718  0000              add [rax],al
0000E71A  0000              add [rax],al
0000E71C  0000              add [rax],al
0000E71E  0000              add [rax],al
0000E720  0000              add [rax],al
0000E722  0000              add [rax],al
0000E724  0000              add [rax],al
0000E726  0000              add [rax],al
0000E728  0000              add [rax],al
0000E72A  0000              add [rax],al
0000E72C  0000              add [rax],al
0000E72E  0000              add [rax],al
0000E730  0000              add [rax],al
0000E732  0000              add [rax],al
0000E734  0000              add [rax],al
0000E736  0000              add [rax],al
0000E738  0000              add [rax],al
0000E73A  0000              add [rax],al
0000E73C  0000              add [rax],al
0000E73E  0000              add [rax],al
0000E740  0000              add [rax],al
0000E742  0000              add [rax],al
0000E744  0000              add [rax],al
0000E746  0000              add [rax],al
0000E748  0000              add [rax],al
0000E74A  0000              add [rax],al
0000E74C  0000              add [rax],al
0000E74E  0000              add [rax],al
0000E750  0000              add [rax],al
0000E752  0000              add [rax],al
0000E754  0000              add [rax],al
0000E756  0000              add [rax],al
0000E758  0000              add [rax],al
0000E75A  0000              add [rax],al
0000E75C  0000              add [rax],al
0000E75E  0000              add [rax],al
0000E760  0000              add [rax],al
0000E762  0000              add [rax],al
0000E764  0000              add [rax],al
0000E766  0000              add [rax],al
0000E768  0000              add [rax],al
0000E76A  0000              add [rax],al
0000E76C  0000              add [rax],al
0000E76E  0000              add [rax],al
0000E770  0000              add [rax],al
0000E772  0000              add [rax],al
0000E774  0000              add [rax],al
0000E776  0000              add [rax],al
0000E778  0000              add [rax],al
0000E77A  0000              add [rax],al
0000E77C  0000              add [rax],al
0000E77E  0000              add [rax],al
0000E780  0000              add [rax],al
0000E782  0000              add [rax],al
0000E784  0000              add [rax],al
0000E786  0000              add [rax],al
0000E788  0000              add [rax],al
0000E78A  0000              add [rax],al
0000E78C  0000              add [rax],al
0000E78E  0000              add [rax],al
0000E790  0000              add [rax],al
0000E792  0000              add [rax],al
0000E794  0000              add [rax],al
0000E796  0000              add [rax],al
0000E798  0000              add [rax],al
0000E79A  0000              add [rax],al
0000E79C  0000              add [rax],al
0000E79E  0000              add [rax],al
0000E7A0  0000              add [rax],al
0000E7A2  0000              add [rax],al
0000E7A4  0000              add [rax],al
0000E7A6  0000              add [rax],al
0000E7A8  0000              add [rax],al
0000E7AA  0000              add [rax],al
0000E7AC  0000              add [rax],al
0000E7AE  0000              add [rax],al
0000E7B0  0000              add [rax],al
0000E7B2  0000              add [rax],al
0000E7B4  0000              add [rax],al
0000E7B6  0000              add [rax],al
0000E7B8  0000              add [rax],al
0000E7BA  0000              add [rax],al
0000E7BC  0000              add [rax],al
0000E7BE  0000              add [rax],al
0000E7C0  0000              add [rax],al
0000E7C2  0000              add [rax],al
0000E7C4  0000              add [rax],al
0000E7C6  0000              add [rax],al
0000E7C8  0000              add [rax],al
0000E7CA  0000              add [rax],al
0000E7CC  0000              add [rax],al
0000E7CE  0000              add [rax],al
0000E7D0  0000              add [rax],al
0000E7D2  0000              add [rax],al
0000E7D4  0000              add [rax],al
0000E7D6  0000              add [rax],al
0000E7D8  0000              add [rax],al
0000E7DA  0000              add [rax],al
0000E7DC  0000              add [rax],al
0000E7DE  0000              add [rax],al
0000E7E0  0000              add [rax],al
0000E7E2  0000              add [rax],al
0000E7E4  0000              add [rax],al
0000E7E6  0000              add [rax],al
0000E7E8  0000              add [rax],al
0000E7EA  0000              add [rax],al
0000E7EC  0000              add [rax],al
0000E7EE  0000              add [rax],al
0000E7F0  0000              add [rax],al
0000E7F2  0000              add [rax],al
0000E7F4  0000              add [rax],al
0000E7F6  0000              add [rax],al
0000E7F8  0000              add [rax],al
0000E7FA  0000              add [rax],al
0000E7FC  0000              add [rax],al
0000E7FE  0000              add [rax],al
0000E800  0000              add [rax],al
0000E802  0000              add [rax],al
0000E804  0000              add [rax],al
0000E806  0000              add [rax],al
0000E808  0000              add [rax],al
0000E80A  0000              add [rax],al
0000E80C  0000              add [rax],al
0000E80E  0000              add [rax],al
0000E810  0000              add [rax],al
0000E812  0000              add [rax],al
0000E814  0000              add [rax],al
0000E816  0000              add [rax],al
0000E818  0000              add [rax],al
0000E81A  0000              add [rax],al
0000E81C  0000              add [rax],al
0000E81E  0000              add [rax],al
0000E820  0000              add [rax],al
0000E822  0000              add [rax],al
0000E824  0000              add [rax],al
0000E826  0000              add [rax],al
0000E828  0000              add [rax],al
0000E82A  0000              add [rax],al
0000E82C  0000              add [rax],al
0000E82E  0000              add [rax],al
0000E830  0000              add [rax],al
0000E832  0000              add [rax],al
0000E834  0000              add [rax],al
0000E836  0000              add [rax],al
0000E838  0000              add [rax],al
0000E83A  0000              add [rax],al
0000E83C  0000              add [rax],al
0000E83E  0000              add [rax],al
0000E840  0000              add [rax],al
0000E842  0000              add [rax],al
0000E844  0000              add [rax],al
0000E846  0000              add [rax],al
0000E848  0000              add [rax],al
0000E84A  0000              add [rax],al
0000E84C  0000              add [rax],al
0000E84E  0000              add [rax],al
0000E850  0000              add [rax],al
0000E852  0000              add [rax],al
0000E854  0000              add [rax],al
0000E856  0000              add [rax],al
0000E858  0000              add [rax],al
0000E85A  0000              add [rax],al
0000E85C  0000              add [rax],al
0000E85E  0000              add [rax],al
0000E860  0000              add [rax],al
0000E862  0000              add [rax],al
0000E864  0000              add [rax],al
0000E866  0000              add [rax],al
0000E868  0000              add [rax],al
0000E86A  0000              add [rax],al
0000E86C  0000              add [rax],al
0000E86E  0000              add [rax],al
0000E870  0000              add [rax],al
0000E872  0000              add [rax],al
0000E874  0000              add [rax],al
0000E876  0000              add [rax],al
0000E878  0000              add [rax],al
0000E87A  0000              add [rax],al
0000E87C  0000              add [rax],al
0000E87E  0000              add [rax],al
0000E880  0000              add [rax],al
0000E882  0000              add [rax],al
0000E884  0000              add [rax],al
0000E886  0000              add [rax],al
0000E888  0000              add [rax],al
0000E88A  0000              add [rax],al
0000E88C  0000              add [rax],al
0000E88E  0000              add [rax],al
0000E890  0000              add [rax],al
0000E892  0000              add [rax],al
0000E894  0000              add [rax],al
0000E896  0000              add [rax],al
0000E898  0000              add [rax],al
0000E89A  0000              add [rax],al
0000E89C  0000              add [rax],al
0000E89E  0000              add [rax],al
0000E8A0  0000              add [rax],al
0000E8A2  0000              add [rax],al
0000E8A4  0000              add [rax],al
0000E8A6  0000              add [rax],al
0000E8A8  0000              add [rax],al
0000E8AA  0000              add [rax],al
0000E8AC  0000              add [rax],al
0000E8AE  0000              add [rax],al
0000E8B0  0000              add [rax],al
0000E8B2  0000              add [rax],al
0000E8B4  0000              add [rax],al
0000E8B6  0000              add [rax],al
0000E8B8  0000              add [rax],al
0000E8BA  0000              add [rax],al
0000E8BC  0000              add [rax],al
0000E8BE  0000              add [rax],al
0000E8C0  0000              add [rax],al
0000E8C2  0000              add [rax],al
0000E8C4  0000              add [rax],al
0000E8C6  0000              add [rax],al
0000E8C8  0000              add [rax],al
0000E8CA  0000              add [rax],al
0000E8CC  0000              add [rax],al
0000E8CE  0000              add [rax],al
0000E8D0  0000              add [rax],al
0000E8D2  0000              add [rax],al
0000E8D4  0000              add [rax],al
0000E8D6  0000              add [rax],al
0000E8D8  0000              add [rax],al
0000E8DA  0000              add [rax],al
0000E8DC  0000              add [rax],al
0000E8DE  0000              add [rax],al
0000E8E0  0000              add [rax],al
0000E8E2  0000              add [rax],al
0000E8E4  0000              add [rax],al
0000E8E6  0000              add [rax],al
0000E8E8  0000              add [rax],al
0000E8EA  0000              add [rax],al
0000E8EC  0000              add [rax],al
0000E8EE  0000              add [rax],al
0000E8F0  0000              add [rax],al
0000E8F2  0000              add [rax],al
0000E8F4  0000              add [rax],al
0000E8F6  0000              add [rax],al
0000E8F8  0000              add [rax],al
0000E8FA  0000              add [rax],al
0000E8FC  0000              add [rax],al
0000E8FE  0000              add [rax],al
0000E900  0000              add [rax],al
0000E902  0000              add [rax],al
0000E904  0000              add [rax],al
0000E906  0000              add [rax],al
0000E908  0000              add [rax],al
0000E90A  0000              add [rax],al
0000E90C  0000              add [rax],al
0000E90E  0000              add [rax],al
0000E910  0000              add [rax],al
0000E912  0000              add [rax],al
0000E914  0000              add [rax],al
0000E916  0000              add [rax],al
0000E918  0000              add [rax],al
0000E91A  0000              add [rax],al
0000E91C  0000              add [rax],al
0000E91E  0000              add [rax],al
0000E920  0000              add [rax],al
0000E922  0000              add [rax],al
0000E924  0000              add [rax],al
0000E926  0000              add [rax],al
0000E928  0000              add [rax],al
0000E92A  0000              add [rax],al
0000E92C  0000              add [rax],al
0000E92E  0000              add [rax],al
0000E930  0000              add [rax],al
0000E932  0000              add [rax],al
0000E934  0000              add [rax],al
0000E936  0000              add [rax],al
0000E938  0000              add [rax],al
0000E93A  0000              add [rax],al
0000E93C  0000              add [rax],al
0000E93E  0000              add [rax],al
0000E940  0000              add [rax],al
0000E942  0000              add [rax],al
0000E944  0000              add [rax],al
0000E946  0000              add [rax],al
0000E948  0000              add [rax],al
0000E94A  0000              add [rax],al
0000E94C  0000              add [rax],al
0000E94E  0000              add [rax],al
0000E950  0000              add [rax],al
0000E952  0000              add [rax],al
0000E954  0000              add [rax],al
0000E956  0000              add [rax],al
0000E958  0000              add [rax],al
0000E95A  0000              add [rax],al
0000E95C  0000              add [rax],al
0000E95E  0000              add [rax],al
0000E960  0000              add [rax],al
0000E962  0000              add [rax],al
0000E964  0000              add [rax],al
0000E966  0000              add [rax],al
0000E968  0000              add [rax],al
0000E96A  0000              add [rax],al
0000E96C  0000              add [rax],al
0000E96E  0000              add [rax],al
0000E970  0000              add [rax],al
0000E972  0000              add [rax],al
0000E974  0000              add [rax],al
0000E976  0000              add [rax],al
0000E978  0000              add [rax],al
0000E97A  0000              add [rax],al
0000E97C  0000              add [rax],al
0000E97E  0000              add [rax],al
0000E980  0000              add [rax],al
0000E982  0000              add [rax],al
0000E984  0000              add [rax],al
0000E986  0000              add [rax],al
0000E988  0000              add [rax],al
0000E98A  0000              add [rax],al
0000E98C  0000              add [rax],al
0000E98E  0000              add [rax],al
0000E990  0000              add [rax],al
0000E992  0000              add [rax],al
0000E994  0000              add [rax],al
0000E996  0000              add [rax],al
0000E998  0000              add [rax],al
0000E99A  0000              add [rax],al
0000E99C  0000              add [rax],al
0000E99E  0000              add [rax],al
0000E9A0  0000              add [rax],al
0000E9A2  0000              add [rax],al
0000E9A4  0000              add [rax],al
0000E9A6  0000              add [rax],al
0000E9A8  0000              add [rax],al
0000E9AA  0000              add [rax],al
0000E9AC  0000              add [rax],al
0000E9AE  0000              add [rax],al
0000E9B0  0000              add [rax],al
0000E9B2  0000              add [rax],al
0000E9B4  0000              add [rax],al
0000E9B6  0000              add [rax],al
0000E9B8  0000              add [rax],al
0000E9BA  0000              add [rax],al
0000E9BC  0000              add [rax],al
0000E9BE  0000              add [rax],al
0000E9C0  0000              add [rax],al
0000E9C2  0000              add [rax],al
0000E9C4  0000              add [rax],al
0000E9C6  0000              add [rax],al
0000E9C8  0000              add [rax],al
0000E9CA  0000              add [rax],al
0000E9CC  0000              add [rax],al
0000E9CE  0000              add [rax],al
0000E9D0  0000              add [rax],al
0000E9D2  0000              add [rax],al
0000E9D4  0000              add [rax],al
0000E9D6  0000              add [rax],al
0000E9D8  0000              add [rax],al
0000E9DA  0000              add [rax],al
0000E9DC  0000              add [rax],al
0000E9DE  0000              add [rax],al
0000E9E0  0000              add [rax],al
0000E9E2  0000              add [rax],al
0000E9E4  0000              add [rax],al
0000E9E6  0000              add [rax],al
0000E9E8  0000              add [rax],al
0000E9EA  0000              add [rax],al
0000E9EC  0000              add [rax],al
0000E9EE  0000              add [rax],al
0000E9F0  0000              add [rax],al
0000E9F2  0000              add [rax],al
0000E9F4  0000              add [rax],al
0000E9F6  0000              add [rax],al
0000E9F8  0000              add [rax],al
0000E9FA  0000              add [rax],al
0000E9FC  0000              add [rax],al
0000E9FE  0000              add [rax],al
0000EA00  0000              add [rax],al
0000EA02  0000              add [rax],al
0000EA04  0000              add [rax],al
0000EA06  0000              add [rax],al
0000EA08  0000              add [rax],al
0000EA0A  0000              add [rax],al
0000EA0C  0000              add [rax],al
0000EA0E  0000              add [rax],al
0000EA10  0000              add [rax],al
0000EA12  0000              add [rax],al
0000EA14  0000              add [rax],al
0000EA16  0000              add [rax],al
0000EA18  0000              add [rax],al
0000EA1A  0000              add [rax],al
0000EA1C  0000              add [rax],al
0000EA1E  0000              add [rax],al
0000EA20  0000              add [rax],al
0000EA22  0000              add [rax],al
0000EA24  0000              add [rax],al
0000EA26  0000              add [rax],al
0000EA28  0000              add [rax],al
0000EA2A  0000              add [rax],al
0000EA2C  0000              add [rax],al
0000EA2E  0000              add [rax],al
0000EA30  0000              add [rax],al
0000EA32  0000              add [rax],al
0000EA34  0000              add [rax],al
0000EA36  0000              add [rax],al
0000EA38  0000              add [rax],al
0000EA3A  0000              add [rax],al
0000EA3C  0000              add [rax],al
0000EA3E  0000              add [rax],al
0000EA40  0000              add [rax],al
0000EA42  0000              add [rax],al
0000EA44  0000              add [rax],al
0000EA46  0000              add [rax],al
0000EA48  0000              add [rax],al
0000EA4A  0000              add [rax],al
0000EA4C  0000              add [rax],al
0000EA4E  0000              add [rax],al
0000EA50  0000              add [rax],al
0000EA52  0000              add [rax],al
0000EA54  0000              add [rax],al
0000EA56  0000              add [rax],al
0000EA58  0000              add [rax],al
0000EA5A  0000              add [rax],al
0000EA5C  0000              add [rax],al
0000EA5E  0000              add [rax],al
0000EA60  0000              add [rax],al
0000EA62  0000              add [rax],al
0000EA64  0000              add [rax],al
0000EA66  0000              add [rax],al
0000EA68  0000              add [rax],al
0000EA6A  0000              add [rax],al
0000EA6C  0000              add [rax],al
0000EA6E  0000              add [rax],al
0000EA70  0000              add [rax],al
0000EA72  0000              add [rax],al
0000EA74  0000              add [rax],al
0000EA76  0000              add [rax],al
0000EA78  0000              add [rax],al
0000EA7A  0000              add [rax],al
0000EA7C  0000              add [rax],al
0000EA7E  0000              add [rax],al
0000EA80  0000              add [rax],al
0000EA82  0000              add [rax],al
0000EA84  0000              add [rax],al
0000EA86  0000              add [rax],al
0000EA88  0000              add [rax],al
0000EA8A  0000              add [rax],al
0000EA8C  0000              add [rax],al
0000EA8E  0000              add [rax],al
0000EA90  0000              add [rax],al
0000EA92  0000              add [rax],al
0000EA94  0000              add [rax],al
0000EA96  0000              add [rax],al
0000EA98  0000              add [rax],al
0000EA9A  0000              add [rax],al
0000EA9C  0000              add [rax],al
0000EA9E  0000              add [rax],al
0000EAA0  0000              add [rax],al
0000EAA2  0000              add [rax],al
0000EAA4  0000              add [rax],al
0000EAA6  0000              add [rax],al
0000EAA8  0000              add [rax],al
0000EAAA  0000              add [rax],al
0000EAAC  0000              add [rax],al
0000EAAE  0000              add [rax],al
0000EAB0  0000              add [rax],al
0000EAB2  0000              add [rax],al
0000EAB4  0000              add [rax],al
0000EAB6  0000              add [rax],al
0000EAB8  0000              add [rax],al
0000EABA  0000              add [rax],al
0000EABC  0000              add [rax],al
0000EABE  0000              add [rax],al
0000EAC0  0000              add [rax],al
0000EAC2  0000              add [rax],al
0000EAC4  0000              add [rax],al
0000EAC6  0000              add [rax],al
0000EAC8  0000              add [rax],al
0000EACA  0000              add [rax],al
0000EACC  0000              add [rax],al
0000EACE  0000              add [rax],al
0000EAD0  0000              add [rax],al
0000EAD2  0000              add [rax],al
0000EAD4  0000              add [rax],al
0000EAD6  0000              add [rax],al
0000EAD8  0000              add [rax],al
0000EADA  0000              add [rax],al
0000EADC  0000              add [rax],al
0000EADE  0000              add [rax],al
0000EAE0  0000              add [rax],al
0000EAE2  0000              add [rax],al
0000EAE4  0000              add [rax],al
0000EAE6  0000              add [rax],al
0000EAE8  0000              add [rax],al
0000EAEA  0000              add [rax],al
0000EAEC  0000              add [rax],al
0000EAEE  0000              add [rax],al
0000EAF0  0000              add [rax],al
0000EAF2  0000              add [rax],al
0000EAF4  0000              add [rax],al
0000EAF6  0000              add [rax],al
0000EAF8  0000              add [rax],al
0000EAFA  0000              add [rax],al
0000EAFC  0000              add [rax],al
0000EAFE  0000              add [rax],al
0000EB00  0000              add [rax],al
0000EB02  0000              add [rax],al
0000EB04  0000              add [rax],al
0000EB06  0000              add [rax],al
0000EB08  0000              add [rax],al
0000EB0A  0000              add [rax],al
0000EB0C  0000              add [rax],al
0000EB0E  0000              add [rax],al
0000EB10  0000              add [rax],al
0000EB12  0000              add [rax],al
0000EB14  0000              add [rax],al
0000EB16  0000              add [rax],al
0000EB18  0000              add [rax],al
0000EB1A  0000              add [rax],al
0000EB1C  0000              add [rax],al
0000EB1E  0000              add [rax],al
0000EB20  0000              add [rax],al
0000EB22  0000              add [rax],al
0000EB24  0000              add [rax],al
0000EB26  0000              add [rax],al
0000EB28  0000              add [rax],al
0000EB2A  0000              add [rax],al
0000EB2C  0000              add [rax],al
0000EB2E  0000              add [rax],al
0000EB30  0000              add [rax],al
0000EB32  0000              add [rax],al
0000EB34  0000              add [rax],al
0000EB36  0000              add [rax],al
0000EB38  0000              add [rax],al
0000EB3A  0000              add [rax],al
0000EB3C  0000              add [rax],al
0000EB3E  0000              add [rax],al
0000EB40  0000              add [rax],al
0000EB42  0000              add [rax],al
0000EB44  0000              add [rax],al
0000EB46  0000              add [rax],al
0000EB48  0000              add [rax],al
0000EB4A  0000              add [rax],al
0000EB4C  0000              add [rax],al
0000EB4E  0000              add [rax],al
0000EB50  0000              add [rax],al
0000EB52  0000              add [rax],al
0000EB54  0000              add [rax],al
0000EB56  0000              add [rax],al
0000EB58  0000              add [rax],al
0000EB5A  0000              add [rax],al
0000EB5C  0000              add [rax],al
0000EB5E  0000              add [rax],al
0000EB60  0000              add [rax],al
0000EB62  0000              add [rax],al
0000EB64  0000              add [rax],al
0000EB66  0000              add [rax],al
0000EB68  0000              add [rax],al
0000EB6A  0000              add [rax],al
0000EB6C  0000              add [rax],al
0000EB6E  0000              add [rax],al
0000EB70  0000              add [rax],al
0000EB72  0000              add [rax],al
0000EB74  0000              add [rax],al
0000EB76  0000              add [rax],al
0000EB78  0000              add [rax],al
0000EB7A  0000              add [rax],al
0000EB7C  0000              add [rax],al
0000EB7E  0000              add [rax],al
0000EB80  0000              add [rax],al
0000EB82  0000              add [rax],al
0000EB84  0000              add [rax],al
0000EB86  0000              add [rax],al
0000EB88  0000              add [rax],al
0000EB8A  0000              add [rax],al
0000EB8C  0000              add [rax],al
0000EB8E  0000              add [rax],al
0000EB90  0000              add [rax],al
0000EB92  0000              add [rax],al
0000EB94  0000              add [rax],al
0000EB96  0000              add [rax],al
0000EB98  0000              add [rax],al
0000EB9A  0000              add [rax],al
0000EB9C  0000              add [rax],al
0000EB9E  0000              add [rax],al
0000EBA0  0000              add [rax],al
0000EBA2  0000              add [rax],al
0000EBA4  0000              add [rax],al
0000EBA6  0000              add [rax],al
0000EBA8  0000              add [rax],al
0000EBAA  0000              add [rax],al
0000EBAC  0000              add [rax],al
0000EBAE  0000              add [rax],al
0000EBB0  0000              add [rax],al
0000EBB2  0000              add [rax],al
0000EBB4  0000              add [rax],al
0000EBB6  0000              add [rax],al
0000EBB8  0000              add [rax],al
0000EBBA  0000              add [rax],al
0000EBBC  0000              add [rax],al
0000EBBE  0000              add [rax],al
0000EBC0  0000              add [rax],al
0000EBC2  0000              add [rax],al
0000EBC4  0000              add [rax],al
0000EBC6  0000              add [rax],al
0000EBC8  0000              add [rax],al
0000EBCA  0000              add [rax],al
0000EBCC  0000              add [rax],al
0000EBCE  0000              add [rax],al
0000EBD0  0000              add [rax],al
0000EBD2  0000              add [rax],al
0000EBD4  0000              add [rax],al
0000EBD6  0000              add [rax],al
0000EBD8  0000              add [rax],al
0000EBDA  0000              add [rax],al
0000EBDC  0000              add [rax],al
0000EBDE  0000              add [rax],al
0000EBE0  0000              add [rax],al
0000EBE2  0000              add [rax],al
0000EBE4  0000              add [rax],al
0000EBE6  0000              add [rax],al
0000EBE8  0000              add [rax],al
0000EBEA  0000              add [rax],al
0000EBEC  0000              add [rax],al
0000EBEE  0000              add [rax],al
0000EBF0  0000              add [rax],al
0000EBF2  0000              add [rax],al
0000EBF4  0000              add [rax],al
0000EBF6  0000              add [rax],al
0000EBF8  0000              add [rax],al
0000EBFA  0000              add [rax],al
0000EBFC  0000              add [rax],al
0000EBFE  0000              add [rax],al
0000EC00  0000              add [rax],al
0000EC02  0000              add [rax],al
0000EC04  0000              add [rax],al
0000EC06  0000              add [rax],al
0000EC08  0000              add [rax],al
0000EC0A  0000              add [rax],al
0000EC0C  0000              add [rax],al
0000EC0E  0000              add [rax],al
0000EC10  0000              add [rax],al
0000EC12  0000              add [rax],al
0000EC14  0000              add [rax],al
0000EC16  0000              add [rax],al
0000EC18  0000              add [rax],al
0000EC1A  0000              add [rax],al
0000EC1C  0000              add [rax],al
0000EC1E  0000              add [rax],al
0000EC20  0000              add [rax],al
0000EC22  0000              add [rax],al
0000EC24  0000              add [rax],al
0000EC26  0000              add [rax],al
0000EC28  0000              add [rax],al
0000EC2A  0000              add [rax],al
0000EC2C  0000              add [rax],al
0000EC2E  0000              add [rax],al
0000EC30  0000              add [rax],al
0000EC32  0000              add [rax],al
0000EC34  0000              add [rax],al
0000EC36  0000              add [rax],al
0000EC38  0000              add [rax],al
0000EC3A  0000              add [rax],al
0000EC3C  0000              add [rax],al
0000EC3E  0000              add [rax],al
0000EC40  0000              add [rax],al
0000EC42  0000              add [rax],al
0000EC44  0000              add [rax],al
0000EC46  0000              add [rax],al
0000EC48  0000              add [rax],al
0000EC4A  0000              add [rax],al
0000EC4C  0000              add [rax],al
0000EC4E  0000              add [rax],al
0000EC50  0000              add [rax],al
0000EC52  0000              add [rax],al
0000EC54  0000              add [rax],al
0000EC56  0000              add [rax],al
0000EC58  0000              add [rax],al
0000EC5A  0000              add [rax],al
0000EC5C  0000              add [rax],al
0000EC5E  0000              add [rax],al
0000EC60  0000              add [rax],al
0000EC62  0000              add [rax],al
0000EC64  0000              add [rax],al
0000EC66  0000              add [rax],al
0000EC68  0000              add [rax],al
0000EC6A  0000              add [rax],al
0000EC6C  0000              add [rax],al
0000EC6E  0000              add [rax],al
0000EC70  0000              add [rax],al
0000EC72  0000              add [rax],al
0000EC74  0000              add [rax],al
0000EC76  0000              add [rax],al
0000EC78  0000              add [rax],al
0000EC7A  0000              add [rax],al
0000EC7C  0000              add [rax],al
0000EC7E  0000              add [rax],al
0000EC80  0000              add [rax],al
0000EC82  0000              add [rax],al
0000EC84  0000              add [rax],al
0000EC86  0000              add [rax],al
0000EC88  0000              add [rax],al
0000EC8A  0000              add [rax],al
0000EC8C  0000              add [rax],al
0000EC8E  0000              add [rax],al
0000EC90  0000              add [rax],al
0000EC92  0000              add [rax],al
0000EC94  0000              add [rax],al
0000EC96  0000              add [rax],al
0000EC98  0000              add [rax],al
0000EC9A  0000              add [rax],al
0000EC9C  0000              add [rax],al
0000EC9E  0000              add [rax],al
0000ECA0  0000              add [rax],al
0000ECA2  0000              add [rax],al
0000ECA4  0000              add [rax],al
0000ECA6  0000              add [rax],al
0000ECA8  0000              add [rax],al
0000ECAA  0000              add [rax],al
0000ECAC  0000              add [rax],al
0000ECAE  0000              add [rax],al
0000ECB0  0000              add [rax],al
0000ECB2  0000              add [rax],al
0000ECB4  0000              add [rax],al
0000ECB6  0000              add [rax],al
0000ECB8  0000              add [rax],al
0000ECBA  0000              add [rax],al
0000ECBC  0000              add [rax],al
0000ECBE  0000              add [rax],al
0000ECC0  0000              add [rax],al
0000ECC2  0000              add [rax],al
0000ECC4  0000              add [rax],al
0000ECC6  0000              add [rax],al
0000ECC8  0000              add [rax],al
0000ECCA  0000              add [rax],al
0000ECCC  0000              add [rax],al
0000ECCE  0000              add [rax],al
0000ECD0  0000              add [rax],al
0000ECD2  0000              add [rax],al
0000ECD4  0000              add [rax],al
0000ECD6  0000              add [rax],al
0000ECD8  0000              add [rax],al
0000ECDA  0000              add [rax],al
0000ECDC  0000              add [rax],al
0000ECDE  0000              add [rax],al
0000ECE0  0000              add [rax],al
0000ECE2  0000              add [rax],al
0000ECE4  0000              add [rax],al
0000ECE6  0000              add [rax],al
0000ECE8  0000              add [rax],al
0000ECEA  0000              add [rax],al
0000ECEC  0000              add [rax],al
0000ECEE  0000              add [rax],al
0000ECF0  0000              add [rax],al
0000ECF2  0000              add [rax],al
0000ECF4  0000              add [rax],al
0000ECF6  0000              add [rax],al
0000ECF8  0000              add [rax],al
0000ECFA  0000              add [rax],al
0000ECFC  0000              add [rax],al
0000ECFE  0000              add [rax],al
0000ED00  0000              add [rax],al
0000ED02  0000              add [rax],al
0000ED04  0000              add [rax],al
0000ED06  0000              add [rax],al
0000ED08  0000              add [rax],al
0000ED0A  0000              add [rax],al
0000ED0C  0000              add [rax],al
0000ED0E  0000              add [rax],al
0000ED10  0000              add [rax],al
0000ED12  0000              add [rax],al
0000ED14  0000              add [rax],al
0000ED16  0000              add [rax],al
0000ED18  0000              add [rax],al
0000ED1A  0000              add [rax],al
0000ED1C  0000              add [rax],al
0000ED1E  0000              add [rax],al
0000ED20  0000              add [rax],al
0000ED22  0000              add [rax],al
0000ED24  0000              add [rax],al
0000ED26  0000              add [rax],al
0000ED28  0000              add [rax],al
0000ED2A  0000              add [rax],al
0000ED2C  0000              add [rax],al
0000ED2E  0000              add [rax],al
0000ED30  0000              add [rax],al
0000ED32  0000              add [rax],al
0000ED34  0000              add [rax],al
0000ED36  0000              add [rax],al
0000ED38  0000              add [rax],al
0000ED3A  0000              add [rax],al
0000ED3C  0000              add [rax],al
0000ED3E  0000              add [rax],al
0000ED40  0000              add [rax],al
0000ED42  0000              add [rax],al
0000ED44  0000              add [rax],al
0000ED46  0000              add [rax],al
0000ED48  0000              add [rax],al
0000ED4A  0000              add [rax],al
0000ED4C  0000              add [rax],al
0000ED4E  0000              add [rax],al
0000ED50  0000              add [rax],al
0000ED52  0000              add [rax],al
0000ED54  0000              add [rax],al
0000ED56  0000              add [rax],al
0000ED58  0000              add [rax],al
0000ED5A  0000              add [rax],al
0000ED5C  0000              add [rax],al
0000ED5E  0000              add [rax],al
0000ED60  0000              add [rax],al
0000ED62  0000              add [rax],al
0000ED64  0000              add [rax],al
0000ED66  0000              add [rax],al
0000ED68  0000              add [rax],al
0000ED6A  0000              add [rax],al
0000ED6C  0000              add [rax],al
0000ED6E  0000              add [rax],al
0000ED70  0000              add [rax],al
0000ED72  0000              add [rax],al
0000ED74  0000              add [rax],al
0000ED76  0000              add [rax],al
0000ED78  0000              add [rax],al
0000ED7A  0000              add [rax],al
0000ED7C  0000              add [rax],al
0000ED7E  0000              add [rax],al
0000ED80  0000              add [rax],al
0000ED82  0000              add [rax],al
0000ED84  0000              add [rax],al
0000ED86  0000              add [rax],al
0000ED88  0000              add [rax],al
0000ED8A  0000              add [rax],al
0000ED8C  0000              add [rax],al
0000ED8E  0000              add [rax],al
0000ED90  0000              add [rax],al
0000ED92  0000              add [rax],al
0000ED94  0000              add [rax],al
0000ED96  0000              add [rax],al
0000ED98  0000              add [rax],al
0000ED9A  0000              add [rax],al
0000ED9C  0000              add [rax],al
0000ED9E  0000              add [rax],al
0000EDA0  0000              add [rax],al
0000EDA2  0000              add [rax],al
0000EDA4  0000              add [rax],al
0000EDA6  0000              add [rax],al
0000EDA8  0000              add [rax],al
0000EDAA  0000              add [rax],al
0000EDAC  0000              add [rax],al
0000EDAE  0000              add [rax],al
0000EDB0  0000              add [rax],al
0000EDB2  0000              add [rax],al
0000EDB4  0000              add [rax],al
0000EDB6  0000              add [rax],al
0000EDB8  0000              add [rax],al
0000EDBA  0000              add [rax],al
0000EDBC  0000              add [rax],al
0000EDBE  0000              add [rax],al
0000EDC0  0000              add [rax],al
0000EDC2  0000              add [rax],al
0000EDC4  0000              add [rax],al
0000EDC6  0000              add [rax],al
0000EDC8  0000              add [rax],al
0000EDCA  0000              add [rax],al
0000EDCC  0000              add [rax],al
0000EDCE  0000              add [rax],al
0000EDD0  0000              add [rax],al
0000EDD2  0000              add [rax],al
0000EDD4  0000              add [rax],al
0000EDD6  0000              add [rax],al
0000EDD8  0000              add [rax],al
0000EDDA  0000              add [rax],al
0000EDDC  0000              add [rax],al
0000EDDE  0000              add [rax],al
0000EDE0  0000              add [rax],al
0000EDE2  0000              add [rax],al
0000EDE4  0000              add [rax],al
0000EDE6  0000              add [rax],al
0000EDE8  0000              add [rax],al
0000EDEA  0000              add [rax],al
0000EDEC  0000              add [rax],al
0000EDEE  0000              add [rax],al
0000EDF0  0000              add [rax],al
0000EDF2  0000              add [rax],al
0000EDF4  0000              add [rax],al
0000EDF6  0000              add [rax],al
0000EDF8  0000              add [rax],al
0000EDFA  0000              add [rax],al
0000EDFC  0000              add [rax],al
0000EDFE  0000              add [rax],al
0000EE00  0000              add [rax],al
0000EE02  0000              add [rax],al
0000EE04  0000              add [rax],al
0000EE06  0000              add [rax],al
0000EE08  0000              add [rax],al
0000EE0A  0000              add [rax],al
0000EE0C  0000              add [rax],al
0000EE0E  0000              add [rax],al
0000EE10  0000              add [rax],al
0000EE12  0000              add [rax],al
0000EE14  0000              add [rax],al
0000EE16  0000              add [rax],al
0000EE18  0000              add [rax],al
0000EE1A  0000              add [rax],al
0000EE1C  0000              add [rax],al
0000EE1E  0000              add [rax],al
0000EE20  0000              add [rax],al
0000EE22  0000              add [rax],al
0000EE24  0000              add [rax],al
0000EE26  0000              add [rax],al
0000EE28  0000              add [rax],al
0000EE2A  0000              add [rax],al
0000EE2C  0000              add [rax],al
0000EE2E  0000              add [rax],al
0000EE30  0000              add [rax],al
0000EE32  0000              add [rax],al
0000EE34  0000              add [rax],al
0000EE36  0000              add [rax],al
0000EE38  0000              add [rax],al
0000EE3A  0000              add [rax],al
0000EE3C  0000              add [rax],al
0000EE3E  0000              add [rax],al
0000EE40  0000              add [rax],al
0000EE42  0000              add [rax],al
0000EE44  0000              add [rax],al
0000EE46  0000              add [rax],al
0000EE48  0000              add [rax],al
0000EE4A  0000              add [rax],al
0000EE4C  0000              add [rax],al
0000EE4E  0000              add [rax],al
0000EE50  0000              add [rax],al
0000EE52  0000              add [rax],al
0000EE54  0000              add [rax],al
0000EE56  0000              add [rax],al
0000EE58  0000              add [rax],al
0000EE5A  0000              add [rax],al
0000EE5C  0000              add [rax],al
0000EE5E  0000              add [rax],al
0000EE60  0000              add [rax],al
0000EE62  0000              add [rax],al
0000EE64  0000              add [rax],al
0000EE66  0000              add [rax],al
0000EE68  0000              add [rax],al
0000EE6A  0000              add [rax],al
0000EE6C  0000              add [rax],al
0000EE6E  0000              add [rax],al
0000EE70  0000              add [rax],al
0000EE72  0000              add [rax],al
0000EE74  0000              add [rax],al
0000EE76  0000              add [rax],al
0000EE78  0000              add [rax],al
0000EE7A  0000              add [rax],al
0000EE7C  0000              add [rax],al
0000EE7E  0000              add [rax],al
0000EE80  0000              add [rax],al
0000EE82  0000              add [rax],al
0000EE84  0000              add [rax],al
0000EE86  0000              add [rax],al
0000EE88  0000              add [rax],al
0000EE8A  0000              add [rax],al
0000EE8C  0000              add [rax],al
0000EE8E  0000              add [rax],al
0000EE90  0000              add [rax],al
0000EE92  0000              add [rax],al
0000EE94  0000              add [rax],al
0000EE96  0000              add [rax],al
0000EE98  0000              add [rax],al
0000EE9A  0000              add [rax],al
0000EE9C  0000              add [rax],al
0000EE9E  0000              add [rax],al
0000EEA0  0000              add [rax],al
0000EEA2  0000              add [rax],al
0000EEA4  0000              add [rax],al
0000EEA6  0000              add [rax],al
0000EEA8  0000              add [rax],al
0000EEAA  0000              add [rax],al
0000EEAC  0000              add [rax],al
0000EEAE  0000              add [rax],al
0000EEB0  0000              add [rax],al
0000EEB2  0000              add [rax],al
0000EEB4  0000              add [rax],al
0000EEB6  0000              add [rax],al
0000EEB8  0000              add [rax],al
0000EEBA  0000              add [rax],al
0000EEBC  0000              add [rax],al
0000EEBE  0000              add [rax],al
0000EEC0  0000              add [rax],al
0000EEC2  0000              add [rax],al
0000EEC4  0000              add [rax],al
0000EEC6  0000              add [rax],al
0000EEC8  0000              add [rax],al
0000EECA  0000              add [rax],al
0000EECC  0000              add [rax],al
0000EECE  0000              add [rax],al
0000EED0  0000              add [rax],al
0000EED2  0000              add [rax],al
0000EED4  0000              add [rax],al
0000EED6  0000              add [rax],al
0000EED8  0000              add [rax],al
0000EEDA  0000              add [rax],al
0000EEDC  0000              add [rax],al
0000EEDE  0000              add [rax],al
0000EEE0  0000              add [rax],al
0000EEE2  0000              add [rax],al
0000EEE4  0000              add [rax],al
0000EEE6  0000              add [rax],al
0000EEE8  0000              add [rax],al
0000EEEA  0000              add [rax],al
0000EEEC  0000              add [rax],al
0000EEEE  0000              add [rax],al
0000EEF0  0000              add [rax],al
0000EEF2  0000              add [rax],al
0000EEF4  0000              add [rax],al
0000EEF6  0000              add [rax],al
0000EEF8  0000              add [rax],al
0000EEFA  0000              add [rax],al
0000EEFC  0000              add [rax],al
0000EEFE  0000              add [rax],al
0000EF00  0000              add [rax],al
0000EF02  0000              add [rax],al
0000EF04  0000              add [rax],al
0000EF06  0000              add [rax],al
0000EF08  0000              add [rax],al
0000EF0A  0000              add [rax],al
0000EF0C  0000              add [rax],al
0000EF0E  0000              add [rax],al
0000EF10  0000              add [rax],al
0000EF12  0000              add [rax],al
0000EF14  0000              add [rax],al
0000EF16  0000              add [rax],al
0000EF18  0000              add [rax],al
0000EF1A  0000              add [rax],al
0000EF1C  0000              add [rax],al
0000EF1E  0000              add [rax],al
0000EF20  0000              add [rax],al
0000EF22  0000              add [rax],al
0000EF24  0000              add [rax],al
0000EF26  0000              add [rax],al
0000EF28  0000              add [rax],al
0000EF2A  0000              add [rax],al
0000EF2C  0000              add [rax],al
0000EF2E  0000              add [rax],al
0000EF30  0000              add [rax],al
0000EF32  0000              add [rax],al
0000EF34  0000              add [rax],al
0000EF36  0000              add [rax],al
0000EF38  0000              add [rax],al
0000EF3A  0000              add [rax],al
0000EF3C  0000              add [rax],al
0000EF3E  0000              add [rax],al
0000EF40  0000              add [rax],al
0000EF42  0000              add [rax],al
0000EF44  0000              add [rax],al
0000EF46  0000              add [rax],al
0000EF48  0000              add [rax],al
0000EF4A  0000              add [rax],al
0000EF4C  0000              add [rax],al
0000EF4E  0000              add [rax],al
0000EF50  0000              add [rax],al
0000EF52  0000              add [rax],al
0000EF54  0000              add [rax],al
0000EF56  0000              add [rax],al
0000EF58  0000              add [rax],al
0000EF5A  0000              add [rax],al
0000EF5C  0000              add [rax],al
0000EF5E  0000              add [rax],al
0000EF60  0000              add [rax],al
0000EF62  0000              add [rax],al
0000EF64  0000              add [rax],al
0000EF66  0000              add [rax],al
0000EF68  0000              add [rax],al
0000EF6A  0000              add [rax],al
0000EF6C  0000              add [rax],al
0000EF6E  0000              add [rax],al
0000EF70  0000              add [rax],al
0000EF72  0000              add [rax],al
0000EF74  0000              add [rax],al
0000EF76  0000              add [rax],al
0000EF78  0000              add [rax],al
0000EF7A  0000              add [rax],al
0000EF7C  0000              add [rax],al
0000EF7E  0000              add [rax],al
0000EF80  0000              add [rax],al
0000EF82  0000              add [rax],al
0000EF84  0000              add [rax],al
0000EF86  0000              add [rax],al
0000EF88  0000              add [rax],al
0000EF8A  0000              add [rax],al
0000EF8C  0000              add [rax],al
0000EF8E  0000              add [rax],al
0000EF90  0000              add [rax],al
0000EF92  0000              add [rax],al
0000EF94  0000              add [rax],al
0000EF96  0000              add [rax],al
0000EF98  0000              add [rax],al
0000EF9A  0000              add [rax],al
0000EF9C  0000              add [rax],al
0000EF9E  0000              add [rax],al
0000EFA0  0000              add [rax],al
0000EFA2  0000              add [rax],al
0000EFA4  0000              add [rax],al
0000EFA6  0000              add [rax],al
0000EFA8  0000              add [rax],al
0000EFAA  0000              add [rax],al
0000EFAC  0000              add [rax],al
0000EFAE  0000              add [rax],al
0000EFB0  0000              add [rax],al
0000EFB2  0000              add [rax],al
0000EFB4  0000              add [rax],al
0000EFB6  0000              add [rax],al
0000EFB8  0000              add [rax],al
0000EFBA  0000              add [rax],al
0000EFBC  0000              add [rax],al
0000EFBE  0000              add [rax],al
0000EFC0  0000              add [rax],al
0000EFC2  0000              add [rax],al
0000EFC4  0000              add [rax],al
0000EFC6  0000              add [rax],al
0000EFC8  0000              add [rax],al
0000EFCA  0000              add [rax],al
0000EFCC  0000              add [rax],al
0000EFCE  0000              add [rax],al
0000EFD0  0000              add [rax],al
0000EFD2  0000              add [rax],al
0000EFD4  0000              add [rax],al
0000EFD6  0000              add [rax],al
0000EFD8  0000              add [rax],al
0000EFDA  0000              add [rax],al
0000EFDC  0000              add [rax],al
0000EFDE  0000              add [rax],al
0000EFE0  0000              add [rax],al
0000EFE2  0000              add [rax],al
0000EFE4  0000              add [rax],al
0000EFE6  0000              add [rax],al
0000EFE8  0000              add [rax],al
0000EFEA  0000              add [rax],al
0000EFEC  0000              add [rax],al
0000EFEE  0000              add [rax],al
0000EFF0  0000              add [rax],al
0000EFF2  0000              add [rax],al
0000EFF4  0000              add [rax],al
0000EFF6  0000              add [rax],al
0000EFF8  0000              add [rax],al
0000EFFA  0000              add [rax],al
0000EFFC  0000              add [rax],al
0000EFFE  0000              add [rax],al
0000F000  1400              adc al,0x0
0000F002  0000              add [rax],al
0000F004  0000              add [rax],al
0000F006  0000              add [rax],al
0000F008  017A52            add [rdx+0x52],edi
0000F00B  0001              add [rcx],al
0000F00D  7810              js 0xf01f
0000F00F  011B              add [rbx],ebx
0000F011  0C07              or al,0x7
0000F013  089001000054      or [rax+0x54000001],dl
0000F019  0000              add [rax],al
0000F01B  001C00            add [rax+rax],bl
0000F01E  0000              add [rax],al
0000F020  0090FFFF7D01      add [rax+0x17dffff],dl
0000F026  0000              add [rax],al
0000F028  00410E            add [rcx+0xe],al
0000F02B  108602430D06      adc [rsi+0x60d4302],al
0000F031  428E03            mov es,[rbx]
0000F034  488D0448          lea rax,[rax+rcx*2]
0000F038  8C0544830602      mov [rel 0x2077382],es
0000F03E  E30A              jrcxz 0xf04a
0000F040  C3                ret
0000F041  42CC              int3
0000F043  42CD42            int 0x42
0000F046  CE                db 0xce
0000F047  41                rex.b
0000F048  C6                db 0xc6
0000F049  0C07              or al,0x7
0000F04B  08410B            or [rcx+0xb],al
0000F04E  490AC3            o64 or al,r11b
0000F051  42CC              int3
0000F053  42CD42            int 0x42
0000F056  CE                db 0xce
0000F057  41                rex.b
0000F058  C6                db 0xc6
0000F059  0C07              or al,0x7
0000F05B  08410B            or [rcx+0xb],al
0000F05E  024B0A            add cl,[rbx+0xa]
0000F061  C3                ret
0000F062  42CC              int3
0000F064  42CD42            int 0x42
0000F067  CE                db 0xce
0000F068  41                rex.b
0000F069  C6                db 0xc6
0000F06A  0C07              or al,0x7
0000F06C  08410B            or [rcx+0xb],al
0000F06F  002C00            add [rax+rax],ch
0000F072  0000              add [rax],al
0000F074  7400              jz 0xf076
0000F076  0000              add [rax],al
0000F078  2891FFFF3901      sub [rcx+0x139ffff],dl
0000F07E  0000              add [rax],al
0000F080  00410E            add [rcx+0xe],al
0000F083  1086025B0D06      adc [rsi+0x60d5b02],al
0000F089  428C03            mov [rbx],es
0000F08C  4E83040309        add qword [rbx+r8],byte +0x9
0000F091  01C3              add ebx,eax
0000F093  42CC              int3
0000F095  41                rex.b
0000F096  C6                db 0xc6
0000F097  0C07              or al,0x7
0000F099  0800              or [rax],al
0000F09B  0000              add [rax],al
0000F09D  0000              add [rax],al
0000F09F  001400            add [rax+rax],dl
0000F0A2  0000              add [rax],al
0000F0A4  0000              add [rax],al
0000F0A6  0000              add [rax],al
0000F0A8  017A52            add [rdx+0x52],edi
0000F0AB  0001              add [rcx],al
0000F0AD  7810              js 0xf0bf
0000F0AF  011B              add [rbx],ebx
0000F0B1  0C07              or al,0x7
0000F0B3  089001000010      or [rax+0x10000001],dl
0000F0B9  0000              add [rax],al
0000F0BB  001C00            add [rax+rax],bl
0000F0BE  0000              add [rax],al
0000F0C0  B095              mov al,0x95
0000F0C2  FF                db 0xff
0000F0C3  FF4C0000          dec dword [rax+rax+0x0]
0000F0C7  0000              add [rax],al
0000F0C9  0000              add [rax],al
0000F0CB  0010              add [rax],dl
0000F0CD  0000              add [rax],al
0000F0CF  0030              add [rax],dh
0000F0D1  0000              add [rax],al
0000F0D3  00EC              add ah,ch
0000F0D5  95                xchg eax,ebp
0000F0D6  FF                db 0xff
0000F0D7  FF12              call [rdx]
0000F0D9  0B00              or eax,[rax]
0000F0DB  0000              add [rax],al
0000F0DD  0000              add [rax],al
0000F0DF  001C00            add [rax+rax],bl
0000F0E2  0000              add [rax],al
0000F0E4  440000            add [rax],r8b
0000F0E7  00F8              add al,bh
0000F0E9  A0FFFF2300000000  mov al,[qword 0x410000000023ffff]
         -41
0000F0F2  0E                db 0x0e
0000F0F3  1086025A0D06      adc [rsi+0x60d5a02],al
0000F0F9  47                rex.rxb
0000F0FA  C6                db 0xc6
0000F0FB  0C07              or al,0x7
0000F0FD  0800              or [rax],al
0000F0FF  0010              add [rax],dl
0000F101  0000              add [rax],al
0000F103  00640000          add [rax+rax+0x0],ah
0000F107  0008              add [rax],cl
0000F109  A1FFFF1400000000  mov eax,[qword 0x14ffff]
         -00
0000F112  0000              add [rax],al
0000F114  1000              adc [rax],al
0000F116  0000              add [rax],al
0000F118  7800              js 0xf11a
0000F11A  0000              add [rax],al
0000F11C  14A1              adc al,0xa1
0000F11E  FF                db 0xff
0000F11F  FF                db 0xff
0000F120  3C00              cmp al,0x0
0000F122  0000              add [rax],al
0000F124  0000              add [rax],al
0000F126  0000              add [rax],al
0000F128  1400              adc al,0x0
0000F12A  0000              add [rax],al
0000F12C  0000              add [rax],al
0000F12E  0000              add [rax],al
0000F130  017A52            add [rdx+0x52],edi
0000F133  0001              add [rcx],al
0000F135  7810              js 0xf147
0000F137  011B              add [rbx],ebx
0000F139  0C07              or al,0x7
0000F13B  089001000010      or [rax+0x10000001],dl
0000F141  0000              add [rax],al
0000F143  001C00            add [rax+rax],bl
0000F146  0000              add [rax],al
0000F148  28A1FFFF0300      sub [rcx+0x3ffff],ah
0000F14E  0000              add [rax],al
0000F150  0000              add [rax],al
0000F152  0000              add [rax],al
0000F154  1000              adc [rax],al
0000F156  0000              add [rax],al
0000F158  3000              xor [rax],al
0000F15A  0000              add [rax],al
0000F15C  24A1              and al,0xa1
0000F15E  FF                db 0xff
0000F15F  FF22              jmp [rdx]
0000F161  0000              add [rax],al
0000F163  0000              add [rax],al
0000F165  0000              add [rax],al
0000F167  0010              add [rax],dl
0000F169  0000              add [rax],al
0000F16B  00440000          add [rax+rax+0x0],al
0000F16F  0040A1            add [rax-0x5f],al
0000F172  FF                db 0xff
0000F173  FF29              jmp dword far [rcx]
0000F175  0000              add [rax],al
0000F177  0000              add [rax],al
0000F179  0000              add [rax],al
0000F17B  0010              add [rax],dl
0000F17D  0000              add [rax],al
0000F17F  005800            add [rax+0x0],bl
0000F182  0000              add [rax],al
0000F184  5C                pop rsp
0000F185  A1FFFF2900000000  mov eax,[qword 0x29ffff]
         -00
0000F18E  0000              add [rax],al
0000F190  1400              adc al,0x0
0000F192  0000              add [rax],al
0000F194  0000              add [rax],al
0000F196  0000              add [rax],al
0000F198  017A52            add [rdx+0x52],edi
0000F19B  0001              add [rcx],al
0000F19D  7810              js 0xf1af
0000F19F  011B              add [rbx],ebx
0000F1A1  0C07              or al,0x7
0000F1A3  089001000010      or [rax+0x10000001],dl
0000F1A9  0000              add [rax],al
0000F1AB  001C00            add [rax+rax],bl
0000F1AE  0000              add [rax],al
0000F1B0  60                db 0x60
0000F1B1  A1FFFF1D00000000  mov eax,[qword 0x1dffff]
         -00
0000F1BA  0000              add [rax],al
0000F1BC  1000              adc [rax],al
0000F1BE  0000              add [rax],al
0000F1C0  3000              xor [rax],al
0000F1C2  0000              add [rax],al
0000F1C4  6C                insb
0000F1C5  A1FFFF9900000000  mov eax,[qword 0x99ffff]
         -00
0000F1CE  0000              add [rax],al
0000F1D0  1000              adc [rax],al
0000F1D2  0000              add [rax],al
0000F1D4  440000            add [rax],r8b
0000F1D7  00F8              add al,bh
0000F1D9  A1FFFF5E00000000  mov eax,[qword 0x5effff]
         -00
0000F1E2  0000              add [rax],al
0000F1E4  2800              sub [rax],al
0000F1E6  0000              add [rax],al
0000F1E8  58                pop rax
0000F1E9  0000              add [rax],al
0000F1EB  0044A2FF          add [rdx-0x1],al
0000F1EF  FF5B00            call dword far [rbx+0x0]
0000F1F2  0000              add [rax],al
0000F1F4  00410E            add [rcx+0xe],al
0000F1F7  108602460D06      adc [rsi+0x60d4602],al
0000F1FD  4183037A          add dword [r11],byte +0x7a
0000F201  0AC6              or al,dh
0000F203  C3                ret
0000F204  0C07              or al,0x7
0000F206  08460B            or [rsi+0xb],al
0000F209  4EC6C30C          o64 mov bl,0xc
0000F20D  07                db 0x07
0000F20E  0800              or [rax],al
0000F210  1C00              sbb al,0x0
0000F212  0000              add [rax],al
0000F214  8400              test [rax],al
0000F216  0000              add [rax],al
0000F218  E8CDFFFF9E        call 0xffffffff9f00f1ea
0000F21D  0000              add [rax],al
0000F21F  0000              add [rax],al
0000F221  41                rex.b
0000F222  0E                db 0x0e
0000F223  108602430D06      adc [rsi+0x60d4302],al
0000F229  0299C60C0708      add bl,[rcx+0x8070cc6]
0000F22F  001400            add [rax+rax],dl
0000F232  0000              add [rax],al
0000F234  0000              add [rax],al
0000F236  0000              add [rax],al
0000F238  017A52            add [rdx+0x52],edi
0000F23B  0001              add [rcx],al
0000F23D  7810              js 0xf24f
0000F23F  011B              add [rbx],ebx
0000F241  0C07              or al,0x7
0000F243  089001000010      or [rax+0x10000001],dl
0000F249  0000              add [rax],al
0000F24B  001C00            add [rax+rax],bl
0000F24E  0000              add [rax],al
0000F250  40A2FFFFAC000000  mov [qword 0xacffff],al
         -0000
0000F25A  0000              add [rax],al
0000F25C  1000              adc [rax],al
0000F25E  0000              add [rax],al
0000F260  3000              xor [rax],al
0000F262  0000              add [rax],al
0000F264  DCA2FFFF1000      fsub qword [rdx+0x10ffff]
0000F26A  0000              add [rax],al
0000F26C  0000              add [rax],al
0000F26E  0000              add [rax],al
0000F270  54                push rsp
0000F271  0000              add [rax],al
0000F273  00440000          add [rax+rax+0x0],al
0000F277  00D8              add al,bl
0000F279  A2FFFF8202000000  mov [qword 0x780000000282ffff],al
         -78
0000F282  0E                db 0x0e
0000F283  108602590D06      adc [rsi+0x60d5902],al
0000F289  458D03            lea r8d,[r11]
0000F28C  8C0483            mov [rbx+rax*4],es
0000F28F  0502DA0C07        add eax,0x70cda02
0000F294  08C3              or bl,al
0000F296  C6                db 0xc6
0000F297  CC                int3
0000F298  CD02              int 0x2
0000F29A  800C0610          or byte [rsi+rax],0x10
0000F29E  830586028C048D    add dword [rel 0x48cf52b],byte -0x73
0000F2A5  0302              add eax,[rdx]
0000F2A7  60                db 0x60
0000F2A8  C3                ret
0000F2A9  42CC              int3
0000F2AB  4ECD49            o64 int 0x49
0000F2AE  C6                db 0xc6
0000F2AF  0C07              or al,0x7
0000F2B1  087E0C            or [rsi+0xc],bh
0000F2B4  06                db 0x06
0000F2B5  10830586028C      adc [rbx-0x73fd79fb],al
0000F2BB  048D              add al,0x8d
0000F2BD  03460C            add eax,[rsi+0xc]
0000F2C0  07                db 0x07
0000F2C1  08C3              or bl,al
0000F2C3  C6                db 0xc6
0000F2C4  CC                int3
0000F2C5  CD00              int 0x0
0000F2C7  001C00            add [rax+rax],bl
0000F2CA  0000              add [rax],al
0000F2CC  9C                pushf
0000F2CD  0000              add [rax],al
0000F2CF  0010              add [rax],dl
0000F2D1  A5                movsd
0000F2D2  FF                db 0xff
0000F2D3  FF                db 0xff
0000F2D4  E80A000000        call 0xf2e3
0000F2D9  0339              add edi,[rcx]
0000F2DB  090E              or [rsi],ecx
0000F2DD  108602470D06      adc [rsi+0x60d4702],al
0000F2E3  46                rex.rx
0000F2E4  C6                db 0xc6
0000F2E5  0C07              or al,0x7
0000F2E7  081400            or [rax+rax],dl
0000F2EA  0000              add [rax],al
0000F2EC  0000              add [rax],al
0000F2EE  0000              add [rax],al
0000F2F0  017A52            add [rdx+0x52],edi
0000F2F3  0001              add [rcx],al
0000F2F5  7810              js 0xf307
0000F2F7  011B              add [rbx],ebx
0000F2F9  0C07              or al,0x7
0000F2FB  089001000028      or [rax+0x28000001],dl
0000F301  0000              add [rax],al
0000F303  001C00            add [rax+rax],bl
0000F306  0000              add [rax],al
0000F308  C8AFFFFF          enter 0xffaf,0xff
0000F30C  8C00              mov [rax],es
0000F30E  0000              add [rax],al
0000F310  00410E            add [rcx+0xe],al
0000F313  108602590D06      adc [rsi+0x60d5902],al
0000F319  428C03            mov [rbx],es
0000F31C  4883040264        add qword [rdx+rax],byte +0x64
0000F321  C3                ret
0000F322  42CC              int3
0000F324  41                rex.b
0000F325  C6                db 0xc6
0000F326  0C07              or al,0x7
0000F328  0800              or [rax],al
0000F32A  0000              add [rax],al
0000F32C  2800              sub [rax],al
0000F32E  0000              add [rax],al
0000F330  480000            o64 add [rax],al
0000F333  002CB0            add [rax+rsi*4],ch
0000F336  FF                db 0xff
0000F337  FF4D01            dec dword [rbp+0x1]
0000F33A  0000              add [rax],al
0000F33C  00410E            add [rcx+0xe],al
0000F33F  108602540D06      adc [rsi+0x60d5402],al
0000F345  438C03            mov [r11],es
0000F348  83040331          add dword [rbx+rax],byte +0x31
0000F34C  01C3              add ebx,eax
0000F34E  42CC              int3
0000F350  41                rex.b
0000F351  C6                db 0xc6
0000F352  0C07              or al,0x7
0000F354  0800              or [rax],al
0000F356  0000              add [rax],al
0000F358  4C0000            o64 add [rax],r8b
0000F35B  00740000          add [rax+rax+0x0],dh
0000F35F  0050B1            add [rax-0x4f],dl
0000F362  FF                db 0xff
0000F363  FF4B01            dec dword [rbx+0x1]
0000F366  0000              add [rax],al
0000F368  00410E            add [rcx+0xe],al
0000F36B  108602500D06      adc [rsi+0x60d5002],al
0000F371  448D03            lea r8d,[rbx]
0000F374  8C0444            mov [rsp+rax*2],es
0000F377  830502810AC342    add dword [rel 0xffffffffc30b7480],byte +0x42
0000F37E  CC                int3
0000F37F  42CD41            int 0x41
0000F382  C6                db 0xc6
0000F383  0C07              or al,0x7
0000F385  08410B            or [rcx+0xb],al
0000F388  480AC3            o64 or al,bl
0000F38B  45CC              int3
0000F38D  42CD41            int 0x41
0000F390  C6                db 0xc6
0000F391  0C07              or al,0x7
0000F393  08480B            or [rax+0xb],cl
0000F396  410AC3            or al,r11b
0000F399  45CC              int3
0000F39B  45CD41            int 0x41
0000F39E  C6                db 0xc6
0000F39F  0C07              or al,0x7
0000F3A1  084C0B00          or [rbx+rcx+0x0],cl
0000F3A5  0000              add [rax],al
0000F3A7  001400            add [rax+rax],dl
0000F3AA  0000              add [rax],al
0000F3AC  0000              add [rax],al
0000F3AE  0000              add [rax],al
0000F3B0  017A52            add [rdx+0x52],edi
0000F3B3  0001              add [rcx],al
0000F3B5  7810              js 0xf3c7
0000F3B7  011B              add [rbx],ebx
0000F3B9  0C07              or al,0x7
0000F3BB  089001000010      or [rax+0x10000001],dl
0000F3C1  0000              add [rax],al
0000F3C3  001C00            add [rax+rax],bl
0000F3C6  0000              add [rax],al
0000F3C8  38B2FFFF0B00      cmp [rdx+0xbffff],dh
0000F3CE  0000              add [rax],al
0000F3D0  0000              add [rax],al
0000F3D2  0000              add [rax],al
0000F3D4  1000              adc [rax],al
0000F3D6  0000              add [rax],al
0000F3D8  3000              xor [rax],al
0000F3DA  0000              add [rax],al
0000F3DC  34B2              xor al,0xb2
0000F3DE  FF                db 0xff
0000F3DF  FF0F              dec dword [rdi]
0000F3E1  0000              add [rax],al
0000F3E3  0000              add [rax],al
0000F3E5  0000              add [rax],al
0000F3E7  001400            add [rax+rax],dl
0000F3EA  0000              add [rax],al
0000F3EC  440000            add [rax],r8b
0000F3EF  0030              add [rax],dh
0000F3F1  B2FF              mov dl,0xff
0000F3F3  FF16              call [rsi]
0000F3F5  0000              add [rax],al
0000F3F7  0000              add [rax],al
0000F3F9  0000              add [rax],al
0000F3FB  0000              add [rax],al
0000F3FD  0000              add [rax],al
0000F3FF  001400            add [rax+rax],dl
0000F402  0000              add [rax],al
0000F404  0000              add [rax],al
0000F406  0000              add [rax],al
0000F408  017A52            add [rdx+0x52],edi
0000F40B  0001              add [rcx],al
0000F40D  7810              js 0xf41f
0000F40F  011B              add [rbx],ebx
0000F411  0C07              or al,0x7
0000F413  089001000010      or [rax+0x10000001],dl
0000F419  0000              add [rax],al
0000F41B  001C00            add [rax+rax],bl
0000F41E  0000              add [rax],al
0000F420  20B2FFFF1D00      and [rdx+0x1dffff],dh
0000F426  0000              add [rax],al
0000F428  0000              add [rax],al
0000F42A  0000              add [rax],al
0000F42C  2400              and al,0x0
0000F42E  0000              add [rax],al
0000F430  3000              xor [rax],al
0000F432  0000              add [rax],al
0000F434  2CB2              sub al,0xb2
0000F436  FF                db 0xff
0000F437  FF7600            push qword [rsi+0x0]
0000F43A  0000              add [rax],al
0000F43C  00410E            add [rcx+0xe],al
0000F43F  108602430D06      adc [rsi+0x60d4302],al
0000F445  41830373          add dword [r11],byte +0x73
0000F449  0AC6              or al,dh
0000F44B  C3                ret
0000F44C  0C07              or al,0x7
0000F44E  08480B            or [rax+0xb],cl
0000F451  0000              add [rax],al
0000F453  003400            add [rax+rax],dh
0000F456  0000              add [rax],al
0000F458  58                pop rax
0000F459  0000              add [rax],al
0000F45B  0084B2FFFFCD0A    add [rdx+rsi*4+0xacdffff],al
0000F462  0000              add [rax],al
0000F464  00410E            add [rcx+0xe],al
0000F467  108602430D06      adc [rsi+0x60d4302],al
0000F46D  4D8F03            pop qword [r11]
0000F470  8E048D058C0683    mov es,[rcx*4-0x7cf973fb]
0000F477  07                db 0x07
0000F478  0332              add esi,[rdx]
0000F47A  010A              add [rdx],ecx
0000F47C  C3                ret
0000F47D  42CC              int3
0000F47F  42CD42            int 0x42
0000F482  CE                db 0xce
0000F483  42CF              iret
0000F485  41                rex.b
0000F486  C6                db 0xc6
0000F487  0C07              or al,0x7
0000F489  08440B1C          or [rbx+rcx+0x1c],al
0000F48D  0000              add [rax],al
0000F48F  00900000001C      add [rax+0x1c000000],dl
0000F495  BDFFFF8D00        mov ebp,0x8dffff
0000F49A  0000              add [rax],al
0000F49C  00410E            add [rcx+0xe],al
0000F49F  108602430D06      adc [rsi+0x60d4302],al
0000F4A5  0288C60C0708      add cl,[rax+0x8070cc6]
0000F4AB  0030              add [rax],dh
0000F4AD  0000              add [rax],al
0000F4AF  00B00000008C      add [rax-0x74000000],dh
0000F4B5  BDFFFF4700        mov ebp,0x47ffff
0000F4BA  0000              add [rax],al
0000F4BC  00410E            add [rcx+0xe],al
0000F4BF  108602430D06      adc [rsi+0x60d4302],al
0000F4C5  428C03            mov [rbx],es
0000F4C8  4483046E0A        add dword [rsi+rbp*2],byte +0xa
0000F4CD  C3                ret
0000F4CE  42CC              int3
0000F4D0  41                rex.b
0000F4D1  C6                db 0xc6
0000F4D2  0C07              or al,0x7
0000F4D4  08450B            or [rbp+0xb],al
0000F4D7  41C3              ret
0000F4D9  44CC              int3
0000F4DB  41                rex.b
0000F4DC  C6                db 0xc6
0000F4DD  0C07              or al,0x7
0000F4DF  081400            or [rax+rax],dl
0000F4E2  0000              add [rax],al
0000F4E4  0000              add [rax],al
0000F4E6  0000              add [rax],al
0000F4E8  017A52            add [rdx+0x52],edi
0000F4EB  0001              add [rcx],al
0000F4ED  7810              js 0xf4ff
0000F4EF  011B              add [rbx],ebx
0000F4F1  0C07              or al,0x7
0000F4F3  089001000028      or [rax+0x28000001],dl
0000F4F9  0000              add [rax],al
0000F4FB  001C00            add [rax+rax],bl
0000F4FE  0000              add [rax],al
0000F500  90                nop
0000F501  BDFFFFA300        mov ebp,0xa3ffff
0000F506  0000              add [rax],al
0000F508  00410E            add [rcx+0xe],al
0000F50B  108602450D06      adc [rsi+0x60d4502],al
0000F511  41830302          add dword [r11],byte +0x2
0000F515  750A              jnz 0xf521
0000F517  C6C30C            mov bl,0xc
0000F51A  07                db 0x07
0000F51B  08440B62          or [rbx+rcx+0x62],al
0000F51F  C6C30C            mov bl,0xc
0000F522  07                db 0x07
0000F523  0830              or [rax],dh
0000F525  0000              add [rax],al
0000F527  004800            add [rax+0x0],cl
0000F52A  0000              add [rax],al
0000F52C  14BE              adc al,0xbe
0000F52E  FF                db 0xff
0000F52F  FF8800000000      dec dword [rax+0x0]
0000F535  41                rex.b
0000F536  0E                db 0x0e
0000F537  108602430D06      adc [rsi+0x60d4302],al
0000F53D  448D03            lea r8d,[rbx]
0000F540  8C0448            mov [rax+rcx*2],es
0000F543  83050272C342CC    add dword [rel 0x42c4674c],byte -0x34
0000F54A  42CD41            int 0x41
0000F54D  C6                db 0xc6
0000F54E  0C07              or al,0x7
0000F550  0800              or [rax],al
0000F552  0000              add [rax],al
0000F554  0000              add [rax],al
0000F556  0000              add [rax],al
0000F558  1400              adc al,0x0
0000F55A  0000              add [rax],al
0000F55C  0000              add [rax],al
0000F55E  0000              add [rax],al
0000F560  017A52            add [rdx+0x52],edi
0000F563  0001              add [rcx],al
0000F565  7810              js 0xf577
0000F567  011B              add [rbx],ebx
0000F569  0C07              or al,0x7
0000F56B  089001000010      or [rax+0x10000001],dl
0000F571  0000              add [rax],al
0000F573  001C00            add [rax+rax],bl
0000F576  0000              add [rax],al
0000F578  58                pop rax
0000F579  BEFFFF2900        mov esi,0x29ffff
0000F57E  0000              add [rax],al
0000F580  0000              add [rax],al
0000F582  0000              add [rax],al
0000F584  1000              adc [rax],al
0000F586  0000              add [rax],al
0000F588  3000              xor [rax],al
0000F58A  0000              add [rax],al
0000F58C  74BE              jz 0xf54c
0000F58E  FF                db 0xff
0000F58F  FF21              jmp [rcx]
0000F591  0000              add [rax],al
0000F593  0000              add [rax],al
0000F595  0000              add [rax],al
0000F597  001400            add [rax+rax],dl
0000F59A  0000              add [rax],al
0000F59C  440000            add [rax],r8b
0000F59F  0090BEFFFF3E      add [rax+0x3effffbe],dl
0000F5A5  0000              add [rax],al
0000F5A7  0000              add [rax],al
0000F5A9  0000              add [rax],al
0000F5AB  0000              add [rax],al
0000F5AD  0000              add [rax],al
0000F5AF  001400            add [rax+rax],dl
0000F5B2  0000              add [rax],al
0000F5B4  0000              add [rax],al
0000F5B6  0000              add [rax],al
0000F5B8  017A52            add [rdx+0x52],edi
0000F5BB  0001              add [rcx],al
0000F5BD  7810              js 0xf5cf
0000F5BF  011B              add [rbx],ebx
0000F5C1  0C07              or al,0x7
0000F5C3  089001000010      or [rax+0x10000001],dl
0000F5C9  0000              add [rax],al
0000F5CB  001C00            add [rax+rax],bl
0000F5CE  0000              add [rax],al
0000F5D0  A0BEFFFF09000000  mov al,[qword 0x9ffffbe]
         -00
0000F5D9  0000              add [rax],al
0000F5DB  0010              add [rax],dl
0000F5DD  0000              add [rax],al
0000F5DF  0030              add [rax],dh
0000F5E1  0000              add [rax],al
0000F5E3  009CBEFFFF1600    add [rsi+rdi*4+0x16ffff],bl
0000F5EA  0000              add [rax],al
0000F5EC  0000              add [rax],al
0000F5EE  0000              add [rax],al
0000F5F0  1400              adc al,0x0
0000F5F2  0000              add [rax],al
0000F5F4  440000            add [rax],r8b
0000F5F7  00A8BEFFFF18      add [rax+0x18ffffbe],ch
0000F5FD  0000              add [rax],al
0000F5FF  0000              add [rax],al
0000F601  0000              add [rax],al
0000F603  0000              add [rax],al
0000F605  0000              add [rax],al
0000F607  00                db 0x00
