
src/fs.o:     file format elf64-x86-64


Disassembly of section .text:

0000000000000000 <read>:
   0:	55                   	push   rbp
   1:	bf f0 01 00 00       	mov    edi,0x1f0
   6:	48 89 e5             	mov    rbp,rsp
   9:	41 55                	push   r13
   b:	41 54                	push   r12
   d:	53                   	push   rbx
   e:	48 bb 00 00 00 00 00 	movabs rbx,0x0
  15:	00 00 00 
  18:	48 83 ec 18          	sub    rsp,0x18
  1c:	ff d3                	call   rbx
  1e:	3c ff                	cmp    al,0xff
  20:	0f 84 cf 00 00 00    	je     f5 <read+0xf5>
  26:	49 bc 00 00 00 00 00 	movabs r12,0x0
  2d:	00 00 00 
  30:	be a0 00 00 00       	mov    esi,0xa0
  35:	bf f0 01 00 00       	mov    edi,0x1f0
  3a:	49 bd 00 00 00 00 00 	movabs r13,0x0
  41:	00 00 00 
  44:	41 ff d4             	call   r12
  47:	31 f6                	xor    esi,esi
  49:	bf f2 01 00 00       	mov    edi,0x1f2
  4e:	41 ff d4             	call   r12
  51:	31 f6                	xor    esi,esi
  53:	bf f3 01 00 00       	mov    edi,0x1f3
  58:	41 ff d4             	call   r12
  5b:	31 f6                	xor    esi,esi
  5d:	bf f4 01 00 00       	mov    edi,0x1f4
  62:	41 ff d4             	call   r12
  65:	31 f6                	xor    esi,esi
  67:	bf f5 01 00 00       	mov    edi,0x1f5
  6c:	41 ff d4             	call   r12
  6f:	be ec 00 00 00       	mov    esi,0xec
  74:	bf f6 01 00 00       	mov    edi,0x1f6
  79:	41 ff d4             	call   r12
  7c:	bf f7 01 00 00       	mov    edi,0x1f7
  81:	49 bc 00 00 00 00 00 	movabs r12,0x0
  88:	00 00 00 
  8b:	ff d3                	call   rbx
  8d:	4c 89 ef             	mov    rdi,r13
  90:	88 45 db             	mov    BYTE PTR [rbp-0x25],al
  93:	31 c0                	xor    eax,eax
  95:	0f b6 75 db          	movzx  esi,BYTE PTR [rbp-0x25]
  99:	41 ff d4             	call   r12
  9c:	0f b6 45 db          	movzx  eax,BYTE PTR [rbp-0x25]
  a0:	a8 08                	test   al,0x8
  a2:	75 39                	jne    dd <read+0xdd>
  a4:	0f 1f 40 00          	nop    DWORD PTR [rax+0x0]
  a8:	0f b6 45 db          	movzx  eax,BYTE PTR [rbp-0x25]
  ac:	a8 01                	test   al,0x1
  ae:	75 2d                	jne    dd <read+0xdd>
  b0:	bf f7 01 00 00       	mov    edi,0x1f7
  b5:	ff d3                	call   rbx
  b7:	88 45 db             	mov    BYTE PTR [rbp-0x25],al
  ba:	c7 45 dc e8 03 00 00 	mov    DWORD PTR [rbp-0x24],0x3e8
  c1:	0f 1f 80 00 00 00 00 	nop    DWORD PTR [rax+0x0]
  c8:	8b 45 dc             	mov    eax,DWORD PTR [rbp-0x24]
  cb:	8d 50 ff             	lea    edx,[rax-0x1]
  ce:	89 55 dc             	mov    DWORD PTR [rbp-0x24],edx
  d1:	85 c0                	test   eax,eax
  d3:	75 f3                	jne    c8 <read+0xc8>
  d5:	0f b6 45 db          	movzx  eax,BYTE PTR [rbp-0x25]
  d9:	a8 08                	test   al,0x8
  db:	74 cb                	je     a8 <read+0xa8>
  dd:	0f b6 75 db          	movzx  esi,BYTE PTR [rbp-0x25]
  e1:	48 83 c4 18          	add    rsp,0x18
  e5:	4c 89 ef             	mov    rdi,r13
  e8:	4c 89 e1             	mov    rcx,r12
  eb:	5b                   	pop    rbx
  ec:	31 c0                	xor    eax,eax
  ee:	41 5c                	pop    r12
  f0:	41 5d                	pop    r13
  f2:	5d                   	pop    rbp
  f3:	ff e1                	jmp    rcx
  f5:	48 bf 00 00 00 00 00 	movabs rdi,0x0
  fc:	00 00 00 
  ff:	48 83 c4 18          	add    rsp,0x18
 103:	31 c0                	xor    eax,eax
 105:	48 ba 00 00 00 00 00 	movabs rdx,0x0
 10c:	00 00 00 
 10f:	5b                   	pop    rbx
 110:	41 5c                	pop    r12
 112:	41 5d                	pop    r13
 114:	5d                   	pop    rbp
 115:	ff e2                	jmp    rdx
